(dp0
S'instances'
p1
(lp2
(lp3
(cnumpy.core.multiarray
scalar
p4
(cnumpy
dtype
p5
(S'i4'
p6
I0
I1
tp7
Rp8
(I3
S'<'
p9
NNNI-1
I-1
I0
tp10
bS'#\x00\x00\x00'
p11
tp12
Rp13
g4
(g8
S'\r\x00\x00\x00'
p14
tp15
Rp16
I0
tp17
a(g4
(g8
S'\x03\x00\x00\x00'
p18
tp19
Rp20
g4
(g8
S'Y\x00\x00\x00'
p21
tp22
Rp23
I0
tp24
a(g4
(g8
S'`\x00\x00\x00'
p25
tp26
Rp27
g4
(g8
S'\x05\x00\x00\x00'
p28
tp29
Rp30
I0
tp31
a(g4
(g8
S'2\x00\x00\x00'
p32
tp33
Rp34
g4
(g8
S'b\x00\x00\x00'
p35
tp36
Rp37
I0
tp38
a(g4
(g8
S']\x00\x00\x00'
p39
tp40
Rp41
g4
(g8
S'\r\x00\x00\x00'
p42
tp43
Rp44
I0
tp45
a(g4
(g8
S'U\x00\x00\x00'
p46
tp47
Rp48
g4
(g8
S'b\x00\x00\x00'
p49
tp50
Rp51
I0
tp52
aa(lp53
(g4
(g8
S'e\x00\x00\x00'
p54
tp55
Rp56
g4
(g8
S'?\x00\x00\x00'
p57
tp58
Rp59
I1
tp60
a(g4
(g8
S'f\x00\x00\x00'
p61
tp62
Rp63
g4
(g8
S'4\x00\x00\x00'
p64
tp65
Rp66
I1
tp67
a(g4
(g8
S'W\x00\x00\x00'
p68
tp69
Rp70
g4
(g8
S'9\x00\x00\x00'
p71
tp72
Rp73
I1
tp74
a(g4
(g8
S'`\x00\x00\x00'
p75
tp76
Rp77
g4
(g8
S'4\x00\x00\x00'
p78
tp79
Rp80
I1
tp81
a(g4
(g8
S'N\x00\x00\x00'
p82
tp83
Rp84
g4
(g8
S'4\x00\x00\x00'
p85
tp86
Rp87
I1
tp88
a(g4
(g8
S'&\x00\x00\x00'
p89
tp90
Rp91
g4
(g8
S'\x06\x00\x00\x00'
p92
tp93
Rp94
I1
tp95
aa(lp96
(g4
(g8
S'\x07\x00\x00\x00'
p97
tp98
Rp99
g4
(g8
S'%\x00\x00\x00'
p100
tp101
Rp102
I2
tp103
a(g4
(g8
S'\x04\x00\x00\x00'
p104
tp105
Rp106
g4
(g8
S'V\x00\x00\x00'
p107
tp108
Rp109
I2
tp110
a(g4
(g8
S'L\x00\x00\x00'
p111
tp112
Rp113
g4
(g8
S'*\x00\x00\x00'
p114
tp115
Rp116
I2
tp117
a(g4
(g8
S'\x13\x00\x00\x00'
p118
tp119
Rp120
g4
(g8
S'H\x00\x00\x00'
p121
tp122
Rp123
I2
tp124
a(g4
(g8
S'9\x00\x00\x00'
p125
tp126
Rp127
g4
(g8
S'f\x00\x00\x00'
p128
tp129
Rp130
I2
tp131
a(g4
(g8
S'\x01\x00\x00\x00'
p132
tp133
Rp134
g4
(g8
S'Q\x00\x00\x00'
p135
tp136
Rp137
I2
tp138
aa(lp139
(g4
(g8
S'\x17\x00\x00\x00'
p140
tp141
Rp142
g4
(g8
S'c\x00\x00\x00'
p143
tp144
Rp145
I3
tp146
a(g4
(g8
S' \x00\x00\x00'
p147
tp148
Rp149
g4
(g8
S'6\x00\x00\x00'
p150
tp151
Rp152
I3
tp153
a(g4
(g8
S'R\x00\x00\x00'
p154
tp155
Rp156
g4
(g8
S'1\x00\x00\x00'
p157
tp158
Rp159
I3
tp160
a(g4
(g8
S'H\x00\x00\x00'
p161
tp162
Rp163
g4
(g8
S'8\x00\x00\x00'
p164
tp165
Rp166
I3
tp167
a(g4
(g8
S'f\x00\x00\x00'
p168
tp169
Rp170
g4
(g8
S'\x02\x00\x00\x00'
p171
tp172
Rp173
I3
tp174
a(g4
(g8
S'B\x00\x00\x00'
p175
tp176
Rp177
g4
(g8
S'\x08\x00\x00\x00'
p178
tp179
Rp180
I3
tp181
aa(lp182
(g4
(g8
S'\x0e\x00\x00\x00'
p183
tp184
Rp185
g4
(g8
S'\\\x00\x00\x00'
p186
tp187
Rp188
I4
tp189
a(g4
(g8
S'V\x00\x00\x00'
p190
tp191
Rp192
g4
(g8
S'\x07\x00\x00\x00'
p193
tp194
Rp195
I4
tp196
a(g4
(g8
S'@\x00\x00\x00'
p197
tp198
Rp199
g4
(g8
S'\x03\x00\x00\x00'
p200
tp201
Rp202
I4
tp203
a(g4
(g8
S'\r\x00\x00\x00'
p204
tp205
Rp206
g4
(g8
S'\x1b\x00\x00\x00'
p207
tp208
Rp209
I4
tp210
a(g4
(g8
S'\x0e\x00\x00\x00'
p211
tp212
Rp213
g4
(g8
S')\x00\x00\x00'
p214
tp215
Rp216
I4
tp217
a(g4
(g8
S'\x06\x00\x00\x00'
p218
tp219
Rp220
g4
(g8
S'\x18\x00\x00\x00'
p221
tp222
Rp223
I4
tp224
aa(lp225
(g4
(g8
S'e\x00\x00\x00'
p226
tp227
Rp228
g4
(g8
S'#\x00\x00\x00'
p229
tp230
Rp231
I5
tp232
a(g4
(g8
S"'\x00\x00\x00"
p233
tp234
Rp235
g4
(g8
S'\x1e\x00\x00\x00'
p236
tp237
Rp238
I5
tp239
a(g4
(g8
S'V\x00\x00\x00'
p240
tp241
Rp242
g4
(g8
S'\x03\x00\x00\x00'
p243
tp244
Rp245
I5
tp246
a(g4
(g8
S'S\x00\x00\x00'
p247
tp248
Rp249
g4
(g8
S'#\x00\x00\x00'
p250
tp251
Rp252
I5
tp253
a(g4
(g8
S'O\x00\x00\x00'
p254
tp255
Rp256
g4
(g8
S'\n\x00\x00\x00'
p257
tp258
Rp259
I5
tp260
a(g4
(g8
S'\x10\x00\x00\x00'
p261
tp262
Rp263
g4
(g8
S'\x0e\x00\x00\x00'
p264
tp265
Rp266
I5
tp267
aa(lp268
(g4
(g8
S'-\x00\x00\x00'
p269
tp270
Rp271
g4
(g8
S'6\x00\x00\x00'
p272
tp273
Rp274
I6
tp275
a(g4
(g8
S' \x00\x00\x00'
p276
tp277
Rp278
g4
(g8
S'U\x00\x00\x00'
p279
tp280
Rp281
I6
tp282
a(g4
(g8
S'e\x00\x00\x00'
p283
tp284
Rp285
g4
(g8
S'>\x00\x00\x00'
p286
tp287
Rp288
I6
tp289
a(g4
(g8
S'f\x00\x00\x00'
p290
tp291
Rp292
g4
(g8
S'6\x00\x00\x00'
p293
tp294
Rp295
I6
tp296
a(g4
(g8
S'H\x00\x00\x00'
p297
tp298
Rp299
g4
(g8
S'O\x00\x00\x00'
p300
tp301
Rp302
I6
tp303
a(g4
(g8
S'`\x00\x00\x00'
p304
tp305
Rp306
g4
(g8
S'F\x00\x00\x00'
p307
tp308
Rp309
I6
tp310
aa(lp311
(g4
(g8
S'b\x00\x00\x00'
p312
tp313
Rp314
g4
(g8
S'\\\x00\x00\x00'
p315
tp316
Rp317
I7
tp318
a(g4
(g8
S'P\x00\x00\x00'
p319
tp320
Rp321
g4
(g8
S'6\x00\x00\x00'
p322
tp323
Rp324
I7
tp325
a(g4
(g8
S'.\x00\x00\x00'
p326
tp327
Rp328
g4
(g8
S'O\x00\x00\x00'
p329
tp330
Rp331
I7
tp332
a(g4
(g8
S';\x00\x00\x00'
p333
tp334
Rp335
g4
(g8
S'6\x00\x00\x00'
p336
tp337
Rp338
I7
tp339
a(g4
(g8
S'G\x00\x00\x00'
p340
tp341
Rp342
g4
(g8
S'5\x00\x00\x00'
p343
tp344
Rp345
I7
tp346
a(g4
(g8
S'\\\x00\x00\x00'
p347
tp348
Rp349
g4
(g8
S'Z\x00\x00\x00'
p350
tp351
Rp352
I7
tp353
aa(lp354
(g4
(g8
S'\x03\x00\x00\x00'
p355
tp356
Rp357
g4
(g8
S'\x01\x00\x00\x00'
p358
tp359
Rp360
I8
tp361
a(g4
(g8
S'\x19\x00\x00\x00'
p362
tp363
Rp364
g4
(g8
S'\x1d\x00\x00\x00'
p365
tp366
Rp367
I8
tp368
a(g4
(g8
S'B\x00\x00\x00'
p369
tp370
Rp371
g4
(g8
S'$\x00\x00\x00'
p372
tp373
Rp374
I8
tp375
a(g4
(g8
S'\x02\x00\x00\x00'
p376
tp377
Rp378
g4
(g8
S'!\x00\x00\x00'
p379
tp380
Rp381
I8
tp382
a(g4
(g8
S'V\x00\x00\x00'
p383
tp384
Rp385
g4
(g8
S'\x06\x00\x00\x00'
p386
tp387
Rp388
I8
tp389
a(g4
(g8
S'(\x00\x00\x00'
p390
tp391
Rp392
g4
(g8
S'0\x00\x00\x00'
p393
tp394
Rp395
I8
tp396
aa(lp397
(g4
(g8
S'\\\x00\x00\x00'
p398
tp399
Rp400
g4
(g8
S'\x1f\x00\x00\x00'
p401
tp402
Rp403
I9
tp404
a(g4
(g8
S'U\x00\x00\x00'
p405
tp406
Rp407
g4
(g8
S'\x10\x00\x00\x00'
p408
tp409
Rp410
I9
tp411
a(g4
(g8
S'c\x00\x00\x00'
p412
tp413
Rp414
g4
(g8
S'\x1b\x00\x00\x00'
p415
tp416
Rp417
I9
tp418
a(g4
(g8
S'\x07\x00\x00\x00'
p419
tp420
Rp421
g4
(g8
S'\x13\x00\x00\x00'
p422
tp423
Rp424
I9
tp425
a(g4
(g8
S'\x0c\x00\x00\x00'
p426
tp427
Rp428
g4
(g8
S'\x08\x00\x00\x00'
p429
tp430
Rp431
I9
tp432
a(g4
(g8
S'f\x00\x00\x00'
p433
tp434
Rp435
g4
(g8
S'%\x00\x00\x00'
p436
tp437
Rp438
I9
tp439
aa(lp440
(g4
(g8
S'"\x00\x00\x00'
p441
tp442
Rp443
g4
(g8
S'V\x00\x00\x00'
p444
tp445
Rp446
I10
tp447
a(g4
(g8
S'\x16\x00\x00\x00'
p448
tp449
Rp450
g4
(g8
S'F\x00\x00\x00'
p451
tp452
Rp453
I10
tp454
a(g4
(g8
S'4\x00\x00\x00'
p455
tp456
Rp457
g4
(g8
S'=\x00\x00\x00'
p458
tp459
Rp460
I10
tp461
a(g4
(g8
S'\x03\x00\x00\x00'
p462
tp463
Rp464
g4
(g8
S'5\x00\x00\x00'
p465
tp466
Rp467
I10
tp468
a(g4
(g8
S'H\x00\x00\x00'
p469
tp470
Rp471
g4
(g8
S'J\x00\x00\x00'
p472
tp473
Rp474
I10
tp475
a(g4
(g8
S'\x18\x00\x00\x00'
p476
tp477
Rp478
g4
(g8
S'a\x00\x00\x00'
p479
tp480
Rp481
I10
tp482
aa(lp483
(g4
(g8
S'\x0c\x00\x00\x00'
p484
tp485
Rp486
g4
(g8
S'0\x00\x00\x00'
p487
tp488
Rp489
I11
tp490
a(g4
(g8
S'\x01\x00\x00\x00'
p491
tp492
Rp493
g4
(g8
S'\t\x00\x00\x00'
p494
tp495
Rp496
I11
tp497
a(g4
(g8
S'\x1d\x00\x00\x00'
p498
tp499
Rp500
g4
(g8
S'P\x00\x00\x00'
p501
tp502
Rp503
I11
tp504
a(g4
(g8
S'!\x00\x00\x00'
p505
tp506
Rp507
g4
(g8
S'\\\x00\x00\x00'
p508
tp509
Rp510
I11
tp511
a(g4
(g8
S'"\x00\x00\x00'
p512
tp513
Rp514
g4
(g8
S'b\x00\x00\x00'
p515
tp516
Rp517
I11
tp518
a(g4
(g8
S'X\x00\x00\x00'
p519
tp520
Rp521
g4
(g8
S'Y\x00\x00\x00'
p522
tp523
Rp524
I11
tp525
aa(lp526
(g4
(g8
S'\x01\x00\x00\x00'
p527
tp528
Rp529
g4
(g8
S'\x02\x00\x00\x00'
p530
tp531
Rp532
I12
tp533
a(g4
(g8
S'\x1d\x00\x00\x00'
p534
tp535
Rp536
g4
(g8
S'-\x00\x00\x00'
p537
tp538
Rp539
I12
tp540
a(g4
(g8
S'\x19\x00\x00\x00'
p541
tp542
Rp543
g4
(g8
S'\x1a\x00\x00\x00'
p544
tp545
Rp546
I12
tp547
a(g4
(g8
S'_\x00\x00\x00'
p548
tp549
Rp550
g4
(g8
S'\x18\x00\x00\x00'
p551
tp552
Rp553
I12
tp554
a(g4
(g8
S'K\x00\x00\x00'
p555
tp556
Rp557
g4
(g8
S'#\x00\x00\x00'
p558
tp559
Rp560
I12
tp561
a(g4
(g8
S'\\\x00\x00\x00'
p562
tp563
Rp564
g4
(g8
S'\x12\x00\x00\x00'
p565
tp566
Rp567
I12
tp568
aa(lp569
(g4
(g8
S'7\x00\x00\x00'
p570
tp571
Rp572
g4
(g8
S'M\x00\x00\x00'
p573
tp574
Rp575
I13
tp576
a(g4
(g8
S'H\x00\x00\x00'
p577
tp578
Rp579
g4
(g8
S';\x00\x00\x00'
p580
tp581
Rp582
I13
tp583
a(g4
(g8
S']\x00\x00\x00'
p584
tp585
Rp586
g4
(g8
S'[\x00\x00\x00'
p587
tp588
Rp589
I13
tp590
a(g4
(g8
S'F\x00\x00\x00'
p591
tp592
Rp593
g4
(g8
S'>\x00\x00\x00'
p594
tp595
Rp596
I13
tp597
a(g4
(g8
S'\x11\x00\x00\x00'
p598
tp599
Rp600
g4
(g8
S'=\x00\x00\x00'
p601
tp602
Rp603
I13
tp604
a(g4
(g8
S'.\x00\x00\x00'
p605
tp606
Rp607
g4
(g8
S'Q\x00\x00\x00'
p608
tp609
Rp610
I13
tp611
aa(lp612
(g4
(g8
S'\x0f\x00\x00\x00'
p613
tp614
Rp615
g4
(g8
S'\x15\x00\x00\x00'
p616
tp617
Rp618
I14
tp619
a(g4
(g8
S'\x0f\x00\x00\x00'
p620
tp621
Rp622
g4
(g8
S'\x01\x00\x00\x00'
p623
tp624
Rp625
I14
tp626
a(g4
(g8
S'\x1a\x00\x00\x00'
p627
tp628
Rp629
g4
(g8
S'\x1f\x00\x00\x00'
p630
tp631
Rp632
I14
tp633
a(g4
(g8
S'\x0f\x00\x00\x00'
p634
tp635
Rp636
g4
(g8
S'\t\x00\x00\x00'
p637
tp638
Rp639
I14
tp640
a(g4
(g8
S'Q\x00\x00\x00'
p641
tp642
Rp643
g4
(g8
S'.\x00\x00\x00'
p644
tp645
Rp646
I14
tp647
a(g4
(g8
S'N\x00\x00\x00'
p648
tp649
Rp650
g4
(g8
S'\x11\x00\x00\x00'
p651
tp652
Rp653
I14
tp654
aa(lp655
(g4
(g8
S'\x13\x00\x00\x00'
p656
tp657
Rp658
g4
(g8
S'&\x00\x00\x00'
p659
tp660
Rp661
I15
tp662
a(g4
(g8
S'\x0e\x00\x00\x00'
p663
tp664
Rp665
g4
(g8
S"'\x00\x00\x00"
p666
tp667
Rp668
I15
tp669
a(g4
(g8
S'6\x00\x00\x00'
p670
tp671
Rp672
g4
(g8
S'T\x00\x00\x00'
p673
tp674
Rp675
I15
tp676
a(g4
(g8
S'O\x00\x00\x00'
p677
tp678
Rp679
g4
(g8
S'Q\x00\x00\x00'
p680
tp681
Rp682
I15
tp683
a(g4
(g8
S'J\x00\x00\x00'
p684
tp685
Rp686
g4
(g8
S'c\x00\x00\x00'
p687
tp688
Rp689
I15
tp690
a(g4
(g8
S'8\x00\x00\x00'
p691
tp692
Rp693
g4
(g8
S'<\x00\x00\x00'
p694
tp695
Rp696
I15
tp697
aa(lp698
(g4
(g8
S'\x1e\x00\x00\x00'
p699
tp700
Rp701
g4
(g8
S'%\x00\x00\x00'
p702
tp703
Rp704
I16
tp705
a(g4
(g8
S'\x0c\x00\x00\x00'
p706
tp707
Rp708
g4
(g8
S'6\x00\x00\x00'
p709
tp710
Rp711
I16
tp712
a(g4
(g8
S'M\x00\x00\x00'
p713
tp714
Rp715
g4
(g8
S'\x1f\x00\x00\x00'
p716
tp717
Rp718
I16
tp719
a(g4
(g8
S'f\x00\x00\x00'
p720
tp721
Rp722
g4
(g8
S'\x18\x00\x00\x00'
p723
tp724
Rp725
I16
tp726
a(g4
(g8
S')\x00\x00\x00'
p727
tp728
Rp729
g4
(g8
S'\x02\x00\x00\x00'
p730
tp731
Rp732
I16
tp733
a(g4
(g8
S'\x15\x00\x00\x00'
p734
tp735
Rp736
g4
(g8
S'X\x00\x00\x00'
p737
tp738
Rp739
I16
tp740
aa(lp741
(g4
(g8
S'\x06\x00\x00\x00'
p742
tp743
Rp744
g4
(g8
S'g\x00\x00\x00'
p745
tp746
Rp747
I17
tp748
a(g4
(g8
S'U\x00\x00\x00'
p749
tp750
Rp751
g4
(g8
S'\x07\x00\x00\x00'
p752
tp753
Rp754
I17
tp755
a(g4
(g8
S'\n\x00\x00\x00'
p756
tp757
Rp758
g4
(g8
S'U\x00\x00\x00'
p759
tp760
Rp761
I17
tp762
a(g4
(g8
S'K\x00\x00\x00'
p763
tp764
Rp765
g4
(g8
S'\x17\x00\x00\x00'
p766
tp767
Rp768
I17
tp769
a(g4
(g8
S'3\x00\x00\x00'
p770
tp771
Rp772
g4
(g8
S'\x0c\x00\x00\x00'
p773
tp774
Rp775
I17
tp776
a(g4
(g8
S'@\x00\x00\x00'
p777
tp778
Rp779
g4
(g8
S'\x1a\x00\x00\x00'
p780
tp781
Rp782
I17
tp783
aa(lp784
(g4
(g8
S'\x1a\x00\x00\x00'
p785
tp786
Rp787
g4
(g8
S'U\x00\x00\x00'
p788
tp789
Rp790
I18
tp791
a(g4
(g8
S'\\\x00\x00\x00'
p792
tp793
Rp794
g4
(g8
S'+\x00\x00\x00'
p795
tp796
Rp797
I18
tp798
a(g4
(g8
S'\x03\x00\x00\x00'
p799
tp800
Rp801
g4
(g8
S'\x08\x00\x00\x00'
p802
tp803
Rp804
I18
tp805
a(g4
(g8
S'\x18\x00\x00\x00'
p806
tp807
Rp808
g4
(g8
S'0\x00\x00\x00'
p809
tp810
Rp811
I18
tp812
a(g4
(g8
S'1\x00\x00\x00'
p813
tp814
Rp815
g4
(g8
S'A\x00\x00\x00'
p816
tp817
Rp818
I18
tp819
a(g4
(g8
S')\x00\x00\x00'
p820
tp821
Rp822
g4
(g8
S'1\x00\x00\x00'
p823
tp824
Rp825
I18
tp826
aa(lp827
(g4
(g8
S'\r\x00\x00\x00'
p828
tp829
Rp830
g4
(g8
S'\x15\x00\x00\x00'
p831
tp832
Rp833
I19
tp834
a(g4
(g8
S'\x0c\x00\x00\x00'
p835
tp836
Rp837
g4
(g8
S'\x16\x00\x00\x00'
p838
tp839
Rp840
I19
tp841
a(g830
g833
I19
tp842
a(g830
g833
I19
tp843
a(g4
(g8
S'\x0c\x00\x00\x00'
p844
tp845
Rp846
g4
(g8
S'!\x00\x00\x00'
p847
tp848
Rp849
I19
tp850
a(g846
g849
I19
tp851
aa(lp852
(g4
(g8
S'2\x00\x00\x00'
p853
tp854
Rp855
g4
(g8
S'\x15\x00\x00\x00'
p856
tp857
Rp858
I20
tp859
a(g4
(g8
S'\x07\x00\x00\x00'
p860
tp861
Rp862
g4
(g8
S'\x14\x00\x00\x00'
p863
tp864
Rp865
I20
tp866
a(g4
(g8
S'\t\x00\x00\x00'
p867
tp868
Rp869
g4
(g8
S'0\x00\x00\x00'
p870
tp871
Rp872
I20
tp873
a(g4
(g8
S'$\x00\x00\x00'
p874
tp875
Rp876
g4
(g8
S'*\x00\x00\x00'
p877
tp878
Rp879
I20
tp880
a(g4
(g8
S'\x05\x00\x00\x00'
p881
tp882
Rp883
g4
(g8
S'\x0c\x00\x00\x00'
p884
tp885
Rp886
I20
tp887
a(g4
(g8
S'\x04\x00\x00\x00'
p888
tp889
Rp890
g4
(g8
S'\t\x00\x00\x00'
p891
tp892
Rp893
I20
tp894
aa(lp895
(g4
(g8
S'8\x00\x00\x00'
p896
tp897
Rp898
g4
(g8
S'7\x00\x00\x00'
p899
tp900
Rp901
I21
tp902
a(g4
(g8
S'L\x00\x00\x00'
p903
tp904
Rp905
g4
(g8
S'>\x00\x00\x00'
p906
tp907
Rp908
I21
tp909
a(g4
(g8
S'C\x00\x00\x00'
p910
tp911
Rp912
g4
(g8
S'?\x00\x00\x00'
p913
tp914
Rp915
I21
tp916
a(g4
(g8
S'c\x00\x00\x00'
p917
tp918
Rp919
g4
(g8
S'Y\x00\x00\x00'
p920
tp921
Rp922
I21
tp923
a(g4
(g8
S'S\x00\x00\x00'
p924
tp925
Rp926
g4
(g8
S'E\x00\x00\x00'
p927
tp928
Rp929
I21
tp930
a(g4
(g8
S'd\x00\x00\x00'
p931
tp932
Rp933
g4
(g8
S'F\x00\x00\x00'
p934
tp935
Rp936
I21
tp937
aa(lp938
(g4
(g8
S'K\x00\x00\x00'
p939
tp940
Rp941
g4
(g8
S'H\x00\x00\x00'
p942
tp943
Rp944
I22
tp945
a(g4
(g8
S'Q\x00\x00\x00'
p946
tp947
Rp948
g4
(g8
S'c\x00\x00\x00'
p949
tp950
Rp951
I22
tp952
a(g4
(g8
S'B\x00\x00\x00'
p953
tp954
Rp955
g4
(g8
S'_\x00\x00\x00'
p956
tp957
Rp958
I22
tp959
a(g4
(g8
S'M\x00\x00\x00'
p960
tp961
Rp962
g4
(g8
S'g\x00\x00\x00'
p963
tp964
Rp965
I22
tp966
a(g4
(g8
S'_\x00\x00\x00'
p967
tp968
Rp969
g4
(g8
S'B\x00\x00\x00'
p970
tp971
Rp972
I22
tp973
a(g4
(g8
S'9\x00\x00\x00'
p974
tp975
Rp976
g4
(g8
S'@\x00\x00\x00'
p977
tp978
Rp979
I22
tp980
aa(lp981
(g4
(g8
S'/\x00\x00\x00'
p982
tp983
Rp984
g4
(g8
S'/\x00\x00\x00'
p985
tp986
Rp987
I23
tp988
a(g4
(g8
S'\x06\x00\x00\x00'
p989
tp990
Rp991
g4
(g8
S'\x06\x00\x00\x00'
p992
tp993
Rp994
I23
tp995
a(g4
(g8
S'\x15\x00\x00\x00'
p996
tp997
Rp998
g4
(g8
S'\x15\x00\x00\x00'
p999
tp1000
Rp1001
I23
tp1002
a(g4
(g8
S'6\x00\x00\x00'
p1003
tp1004
Rp1005
g4
(g8
S'6\x00\x00\x00'
p1006
tp1007
Rp1008
I23
tp1009
a(g4
(g8
S'\x19\x00\x00\x00'
p1010
tp1011
Rp1012
g4
(g8
S'\x19\x00\x00\x00'
p1013
tp1014
Rp1015
I23
tp1016
a(g4
(g8
S'9\x00\x00\x00'
p1017
tp1018
Rp1019
g4
(g8
S'9\x00\x00\x00'
p1020
tp1021
Rp1022
I23
tp1023
aa(lp1024
(g4
(g8
S'\x0e\x00\x00\x00'
p1025
tp1026
Rp1027
g4
(g8
S'0\x00\x00\x00'
p1028
tp1029
Rp1030
I24
tp1031
a(g1027
g1030
I24
tp1032
a(g1027
g1030
I24
tp1033
a(g1027
g1030
I24
tp1034
a(g1027
g1030
I24
tp1035
a(g1027
g1030
I24
tp1036
aa(lp1037
(g4
(g8
S'\x03\x00\x00\x00'
p1038
tp1039
Rp1040
g4
(g8
S'\x06\x00\x00\x00'
p1041
tp1042
Rp1043
I25
tp1044
a(g4
(g8
S'\x01\x00\x00\x00'
p1045
tp1046
Rp1047
g4
(g8
S'"\x00\x00\x00'
p1048
tp1049
Rp1050
I25
tp1051
a(g1040
g1043
I25
tp1052
a(g4
(g8
S'\x00\x00\x00\x00'
p1053
tp1054
Rp1055
g4
(g8
S'2\x00\x00\x00'
p1056
tp1057
Rp1058
I25
tp1059
a(g1040
g1043
I25
tp1060
a(g1055
g1058
I25
tp1061
aa(lp1062
(I16
I102
I0
tp1063
a(I7
I26
I0
tp1064
a(I102
I71
I0
tp1065
a(I18
I90
I0
tp1066
aa(lp1067
(I66
I79
I1
tp1068
a(I23
I76
I1
tp1069
a(I29
I15
I1
tp1070
a(I5
I46
I1
tp1071
aa(lp1072
(I14
I0
I2
tp1073
a(I61
I63
I2
tp1074
a(I46
I37
I2
tp1075
a(I24
I99
I2
tp1076
aa(lp1077
(I40
I43
I3
tp1078
a(I52
I14
I3
tp1079
a(I29
I91
I3
tp1080
a(I28
I1
I3
tp1081
aa(lp1082
(I16
I25
I4
tp1083
a(I98
I44
I4
tp1084
a(I20
I80
I4
tp1085
a(I96
I73
I4
tp1086
aa(lp1087
(I64
I24
I5
tp1088
a(I3
I57
I5
tp1089
a(I26
I63
I5
tp1090
a(I74
I43
I5
tp1091
aa(lp1092
(I50
I100
I6
tp1093
a(I81
I15
I6
tp1094
a(I32
I58
I6
tp1095
a(I24
I92
I6
tp1096
aa(lp1097
(I25
I40
I7
tp1098
a(I100
I35
I7
tp1099
a(I11
I77
I7
tp1100
a(I23
I54
I7
tp1101
aa(lp1102
(I13
I68
I8
tp1103
a(I0
I16
I8
tp1104
a(I2
I24
I8
tp1105
a(I79
I13
I8
tp1106
aa(lp1107
(I6
I77
I9
tp1108
a(I37
I6
I9
tp1109
a(I20
I9
I9
tp1110
a(I51
I79
I9
tp1111
aa(lp1112
(I92
I62
I10
tp1113
a(I84
I30
I10
tp1114
a(I51
I72
I10
tp1115
a(I79
I24
I10
tp1116
aa(lp1117
(I44
I41
I11
tp1118
a(I74
I57
I11
tp1119
a(I71
I19
I11
tp1120
a(I94
I43
I11
tp1121
aa(lp1122
(I100
I74
I12
tp1123
a(I64
I32
I12
tp1124
a(I51
I83
I12
tp1125
a(I57
I27
I12
tp1126
aa(lp1127
(I38
I96
I13
tp1128
a(I14
I1
I13
tp1129
a(I81
I23
I13
tp1130
a(I50
I2
I13
tp1131
aa(lp1132
(I50
I3
I14
tp1133
a(I101
I79
I14
tp1134
a(I102
I21
I14
tp1135
a(I87
I15
I14
tp1136
aa(lp1137
(I4
I75
I15
tp1138
a(I4
I8
I15
tp1139
a(I99
I21
I15
tp1140
a(I0
I75
I15
tp1141
aa(lp1142
(I71
I67
I16
tp1143
a(I10
I59
I16
tp1144
a(I42
I42
I16
tp1145
a(I100
I83
I16
tp1146
aa(lp1147
(I99
I0
I17
tp1148
a(I76
I70
I17
tp1149
a(I48
I43
I17
tp1150
a(I57
I3
I17
tp1151
aa(lp1152
(I40
I19
I18
tp1153
a(I14
I80
I18
tp1154
a(I42
I10
I18
tp1155
a(I26
I102
I18
tp1156
aa(lp1157
(I80
I49
I19
tp1158
a(I87
I27
I19
tp1159
a(I19
I42
I19
tp1160
a(I17
I29
I19
tp1161
aa(lp1162
(I86
I8
I20
tp1163
a(I90
I85
I20
tp1164
a(I91
I10
I20
tp1165
a(I24
I1
I20
tp1166
aa(lp1167
(I85
I63
I21
tp1168
a(I35
I80
I21
tp1169
a(I89
I86
I21
tp1170
a(I94
I22
I21
tp1171
aa(lp1172
(I41
I82
I22
tp1173
a(I41
I16
I22
tp1174
a(I40
I80
I22
tp1175
a(I83
I7
I22
tp1176
aa(lp1177
(I41
I31
I23
tp1178
a(I93
I57
I23
tp1179
a(I5
I74
I23
tp1180
a(I77
I83
I23
tp1181
aa(lp1182
(I96
I27
I24
tp1183
a(I90
I94
I24
tp1184
a(I0
I99
I24
tp1185
a(I30
I66
I24
tp1186
aa(lp1187
(I74
I71
I25
tp1188
a(I80
I22
I25
tp1189
a(I63
I56
I25
tp1190
a(I0
I75
I25
tp1191
aas.