(dp0
S'instances'
p1
(lp2
(lp3
(cnumpy.core.multiarray
scalar
p4
(cnumpy
dtype
p5
(S'i4'
p6
I0
I1
tp7
Rp8
(I3
S'<'
p9
NNNI-1
I-1
I0
tp10
bS'2\x00\x00\x00'
p11
tp12
Rp13
g4
(g8
S'b\x00\x00\x00'
p14
tp15
Rp16
I0
tp17
a(g4
(g8
S'U\x00\x00\x00'
p18
tp19
Rp20
g4
(g8
S'Z\x00\x00\x00'
p21
tp22
Rp23
I0
tp24
a(g4
(g8
S'/\x00\x00\x00'
p25
tp26
Rp27
g4
(g8
S'%\x00\x00\x00'
p28
tp29
Rp30
I0
tp31
a(g4
(g8
S'5\x00\x00\x00'
p32
tp33
Rp34
g4
(g8
S' \x00\x00\x00'
p35
tp36
Rp37
I0
tp38
a(g4
(g8
S'`\x00\x00\x00'
p39
tp40
Rp41
g4
(g8
S'\n\x00\x00\x00'
p42
tp43
Rp44
I0
tp45
a(g4
(g8
S'Z\x00\x00\x00'
p46
tp47
Rp48
g4
(g8
S'\x0c\x00\x00\x00'
p49
tp50
Rp51
I0
tp52
aa(lp53
(g4
(g8
S'*\x00\x00\x00'
p54
tp55
Rp56
g4
(g8
S'D\x00\x00\x00'
p57
tp58
Rp59
I1
tp60
a(g4
(g8
S"'\x00\x00\x00"
p61
tp62
Rp63
g4
(g8
S'\x02\x00\x00\x00'
p64
tp65
Rp66
I1
tp67
a(g4
(g8
S'^\x00\x00\x00'
p68
tp69
Rp70
g4
(g8
S'6\x00\x00\x00'
p71
tp72
Rp73
I1
tp74
a(g4
(g8
S'Q\x00\x00\x00'
p75
tp76
Rp77
g4
(g8
S':\x00\x00\x00'
p78
tp79
Rp80
I1
tp81
a(g4
(g8
S'7\x00\x00\x00'
p82
tp83
Rp84
g4
(g8
S'\x1c\x00\x00\x00'
p85
tp86
Rp87
I1
tp88
a(g4
(g8
S'Q\x00\x00\x00'
p89
tp90
Rp91
g4
(g8
S'7\x00\x00\x00'
p92
tp93
Rp94
I1
tp95
aa(lp96
(g4
(g8
S'\x01\x00\x00\x00'
p97
tp98
Rp99
g4
(g8
S'+\x00\x00\x00'
p100
tp101
Rp102
I2
tp103
a(g4
(g8
S'\x0f\x00\x00\x00'
p104
tp105
Rp106
g4
(g8
S'R\x00\x00\x00'
p107
tp108
Rp109
I2
tp110
a(g4
(g8
S'\x02\x00\x00\x00'
p111
tp112
Rp113
g4
(g8
S'U\x00\x00\x00'
p114
tp115
Rp116
I2
tp117
a(g4
(g8
S'@\x00\x00\x00'
p118
tp119
Rp120
g4
(g8
S'[\x00\x00\x00'
p121
tp122
Rp123
I2
tp124
a(g4
(g8
S'9\x00\x00\x00'
p125
tp126
Rp127
g4
(g8
S'W\x00\x00\x00'
p128
tp129
Rp130
I2
tp131
a(g4
(g8
S'\x08\x00\x00\x00'
p132
tp133
Rp134
g4
(g8
S'.\x00\x00\x00'
p135
tp136
Rp137
I2
tp138
aa(lp139
(g4
(g8
S'3\x00\x00\x00'
p140
tp141
Rp142
g4
(g8
S'R\x00\x00\x00'
p143
tp144
Rp145
I3
tp146
a(g142
g145
I3
tp147
a(g4
(g8
S'\x0c\x00\x00\x00'
p148
tp149
Rp150
g4
(g8
S'=\x00\x00\x00'
p151
tp152
Rp153
I3
tp154
a(g4
(g8
S'P\x00\x00\x00'
p155
tp156
Rp157
g4
(g8
S'J\x00\x00\x00'
p158
tp159
Rp160
I3
tp161
a(g4
(g8
S'5\x00\x00\x00'
p162
tp163
Rp164
g4
(g8
S'^\x00\x00\x00'
p165
tp166
Rp167
I3
tp168
a(g4
(g8
S'[\x00\x00\x00'
p169
tp170
Rp171
g4
(g8
S'\r\x00\x00\x00'
p172
tp173
Rp174
I3
tp175
aa(lp176
(g4
(g8
S'_\x00\x00\x00'
p177
tp178
Rp179
g4
(g8
S'\x03\x00\x00\x00'
p180
tp181
Rp182
I4
tp183
a(g4
(g8
S'J\x00\x00\x00'
p184
tp185
Rp186
g4
(g8
S'8\x00\x00\x00'
p187
tp188
Rp189
I4
tp190
a(g4
(g8
S"'\x00\x00\x00"
p191
tp192
Rp193
g4
(g8
S'\x15\x00\x00\x00'
p194
tp195
Rp196
I4
tp197
a(g4
(g8
S'd\x00\x00\x00'
p198
tp199
Rp200
g4
(g8
S'D\x00\x00\x00'
p201
tp202
Rp203
I4
tp204
a(g4
(g8
S'Q\x00\x00\x00'
p205
tp206
Rp207
g4
(g8
S'\x0c\x00\x00\x00'
p208
tp209
Rp210
I4
tp211
a(g4
(g8
S'b\x00\x00\x00'
p212
tp213
Rp214
g4
(g8
S'\n\x00\x00\x00'
p215
tp216
Rp217
I4
tp218
aa(lp219
(g4
(g8
S'\x19\x00\x00\x00'
p220
tp221
Rp222
g4
(g8
S'\x15\x00\x00\x00'
p223
tp224
Rp225
I5
tp226
a(g4
(g8
S'\\\x00\x00\x00'
p227
tp228
Rp229
g4
(g8
S'\x15\x00\x00\x00'
p230
tp231
Rp232
I5
tp233
a(g4
(g8
S'g\x00\x00\x00'
p234
tp235
Rp236
g4
(g8
S'\x10\x00\x00\x00'
p237
tp238
Rp239
I5
tp240
a(g4
(g8
S'd\x00\x00\x00'
p241
tp242
Rp243
g4
(g8
S'2\x00\x00\x00'
p244
tp245
Rp246
I5
tp247
a(g4
(g8
S'2\x00\x00\x00'
p248
tp249
Rp250
g4
(g8
S'\r\x00\x00\x00'
p251
tp252
Rp253
I5
tp254
a(g4
(g8
S'`\x00\x00\x00'
p255
tp256
Rp257
g4
(g8
S'!\x00\x00\x00'
p258
tp259
Rp260
I5
tp261
aa(lp262
(g4
(g8
S'H\x00\x00\x00'
p263
tp264
Rp265
g4
(g8
S'6\x00\x00\x00'
p266
tp267
Rp268
I6
tp269
a(g4
(g8
S'_\x00\x00\x00'
p270
tp271
Rp272
g4
(g8
S'=\x00\x00\x00'
p273
tp274
Rp275
I6
tp276
a(g4
(g8
S'*\x00\x00\x00'
p277
tp278
Rp279
g4
(g8
S'C\x00\x00\x00'
p280
tp281
Rp282
I6
tp283
a(g4
(g8
S'/\x00\x00\x00'
p284
tp285
Rp286
g4
(g8
S'J\x00\x00\x00'
p287
tp288
Rp289
I6
tp290
a(g4
(g8
S']\x00\x00\x00'
p291
tp292
Rp293
g4
(g8
S'8\x00\x00\x00'
p294
tp295
Rp296
I6
tp297
a(g4
(g8
S'b\x00\x00\x00'
p298
tp299
Rp300
g4
(g8
S'X\x00\x00\x00'
p301
tp302
Rp303
I6
tp304
aa(lp305
(g4
(g8
S'_\x00\x00\x00'
p306
tp307
Rp308
g4
(g8
S']\x00\x00\x00'
p309
tp310
Rp311
I7
tp312
a(g4
(g8
S'\x0f\x00\x00\x00'
p313
tp314
Rp315
g4
(g8
S':\x00\x00\x00'
p316
tp317
Rp318
I7
tp319
a(g4
(g8
S'D\x00\x00\x00'
p320
tp321
Rp322
g4
(g8
S';\x00\x00\x00'
p323
tp324
Rp325
I7
tp326
a(g4
(g8
S'\x08\x00\x00\x00'
p327
tp328
Rp329
g4
(g8
S'7\x00\x00\x00'
p330
tp331
Rp332
I7
tp333
a(g4
(g8
S'#\x00\x00\x00'
p334
tp335
Rp336
g4
(g8
S':\x00\x00\x00'
p337
tp338
Rp339
I7
tp340
a(g4
(g8
S'-\x00\x00\x00'
p341
tp342
Rp343
g4
(g8
S'a\x00\x00\x00'
p344
tp345
Rp346
I7
tp347
aa(lp348
(g4
(g8
S'\x1f\x00\x00\x00'
p349
tp350
Rp351
g4
(g8
S'2\x00\x00\x00'
p352
tp353
Rp354
I8
tp355
a(g4
(g8
S'%\x00\x00\x00'
p356
tp357
Rp358
g4
(g8
S'\x18\x00\x00\x00'
p359
tp360
Rp361
I8
tp362
a(g358
g361
I8
tp363
a(g4
(g8
S'\x16\x00\x00\x00'
p364
tp365
Rp366
g4
(g8
S'\x08\x00\x00\x00'
p367
tp368
Rp369
I8
tp370
a(g4
(g8
S'H\x00\x00\x00'
p371
tp372
Rp373
g4
(g8
S'$\x00\x00\x00'
p374
tp375
Rp376
I8
tp377
a(g4
(g8
S'b\x00\x00\x00'
p378
tp379
Rp380
g4
(g8
S'%\x00\x00\x00'
p381
tp382
Rp383
I8
tp384
aa(lp385
(g4
(g8
S'"\x00\x00\x00'
p386
tp387
Rp388
g4
(g8
S'2\x00\x00\x00'
p389
tp390
Rp391
I9
tp392
a(g4
(g8
S'\x12\x00\x00\x00'
p393
tp394
Rp395
g4
(g8
S'\x17\x00\x00\x00'
p396
tp397
Rp398
I9
tp399
a(g4
(g8
S';\x00\x00\x00'
p400
tp401
Rp402
g4
(g8
S'\x11\x00\x00\x00'
p403
tp404
Rp405
I9
tp406
a(g4
(g8
S'\x16\x00\x00\x00'
p407
tp408
Rp409
g4
(g8
S'&\x00\x00\x00'
p410
tp411
Rp412
I9
tp413
a(g4
(g8
S'R\x00\x00\x00'
p414
tp415
Rp416
g4
(g8
S'\x14\x00\x00\x00'
p417
tp418
Rp419
I9
tp420
a(g4
(g8
S'b\x00\x00\x00'
p421
tp422
Rp423
g4
(g8
S"'\x00\x00\x00"
p424
tp425
Rp426
I9
tp427
aa(lp428
(g4
(g8
S'T\x00\x00\x00'
p429
tp430
Rp431
g4
(g8
S'9\x00\x00\x00'
p432
tp433
Rp434
I10
tp435
a(g4
(g8
S'C\x00\x00\x00'
p436
tp437
Rp438
g4
(g8
S'7\x00\x00\x00'
p439
tp440
Rp441
I10
tp442
a(g4
(g8
S'4\x00\x00\x00'
p443
tp444
Rp445
g4
(g8
S'9\x00\x00\x00'
p446
tp447
Rp448
I10
tp449
a(g4
(g8
S'G\x00\x00\x00'
p450
tp451
Rp452
g4
(g8
S'Q\x00\x00\x00'
p453
tp454
Rp455
I10
tp456
a(g4
(g8
S'c\x00\x00\x00'
p457
tp458
Rp459
g4
(g8
S'A\x00\x00\x00'
p460
tp461
Rp462
I10
tp463
a(g4
(g8
S'\x19\x00\x00\x00'
p464
tp465
Rp466
g4
(g8
S'\\\x00\x00\x00'
p467
tp468
Rp469
I10
tp470
aa(lp471
(g4
(g8
S'=\x00\x00\x00'
p472
tp473
Rp474
g4
(g8
S'B\x00\x00\x00'
p475
tp476
Rp477
I11
tp478
a(g4
(g8
S'L\x00\x00\x00'
p479
tp480
Rp481
g4
(g8
S'\\\x00\x00\x00'
p482
tp483
Rp484
I11
tp485
a(g4
(g8
S'\x03\x00\x00\x00'
p486
tp487
Rp488
g4
(g8
S'\x1a\x00\x00\x00'
p489
tp490
Rp491
I11
tp492
a(g4
(g8
S'\x17\x00\x00\x00'
p493
tp494
Rp495
g4
(g8
S' \x00\x00\x00'
p496
tp497
Rp498
I11
tp499
a(g4
(g8
S'D\x00\x00\x00'
p500
tp501
Rp502
g4
(g8
S'O\x00\x00\x00'
p503
tp504
Rp505
I11
tp506
a(g4
(g8
S'Q\x00\x00\x00'
p507
tp508
Rp509
g4
(g8
S'1\x00\x00\x00'
p510
tp511
Rp512
I11
tp513
aa(lp514
(g4
(g8
S'\x1a\x00\x00\x00'
p515
tp516
Rp517
g4
(g8
S'\x19\x00\x00\x00'
p518
tp519
Rp520
I12
tp521
a(g4
(g8
S'*\x00\x00\x00'
p522
tp523
Rp524
g4
(g8
S'\x1e\x00\x00\x00'
p525
tp526
Rp527
I12
tp528
a(g4
(g8
S'(\x00\x00\x00'
p529
tp530
Rp531
g4
(g8
S'\x12\x00\x00\x00'
p532
tp533
Rp534
I12
tp535
a(g4
(g8
S'C\x00\x00\x00'
p536
tp537
Rp538
g4
(g8
S'\x08\x00\x00\x00'
p539
tp540
Rp541
I12
tp542
a(g4
(g8
S'!\x00\x00\x00'
p543
tp544
Rp545
g4
(g8
S'#\x00\x00\x00'
p546
tp547
Rp548
I12
tp549
a(g4
(g8
S'\\\x00\x00\x00'
p550
tp551
Rp552
g4
(g8
S'\x12\x00\x00\x00'
p553
tp554
Rp555
I12
tp556
aa(lp557
(g4
(g8
S'/\x00\x00\x00'
p558
tp559
Rp560
g4
(g8
S'a\x00\x00\x00'
p561
tp562
Rp563
I13
tp564
a(g4
(g8
S'B\x00\x00\x00'
p565
tp566
Rp567
g4
(g8
S'M\x00\x00\x00'
p568
tp569
Rp570
I13
tp571
a(g4
(g8
S'^\x00\x00\x00'
p572
tp573
Rp574
g4
(g8
S'X\x00\x00\x00'
p575
tp576
Rp577
I13
tp578
a(g4
(g8
S'%\x00\x00\x00'
p579
tp580
Rp581
g4
(g8
S'U\x00\x00\x00'
p582
tp583
Rp584
I13
tp585
a(g4
(g8
S'\x11\x00\x00\x00'
p586
tp587
Rp588
g4
(g8
S'C\x00\x00\x00'
p589
tp590
Rp591
I13
tp592
a(g4
(g8
S'\x18\x00\x00\x00'
p593
tp594
Rp595
g4
(g8
S'A\x00\x00\x00'
p596
tp597
Rp598
I13
tp599
aa(lp600
(g4
(g8
S'Q\x00\x00\x00'
p601
tp602
Rp603
g4
(g8
S'\x1d\x00\x00\x00'
p604
tp605
Rp606
I14
tp607
a(g4
(g8
S' \x00\x00\x00'
p608
tp609
Rp610
g4
(g8
S'\x19\x00\x00\x00'
p611
tp612
Rp613
I14
tp614
a(g4
(g8
S'\x0f\x00\x00\x00'
p615
tp616
Rp617
g4
(g8
S'\x15\x00\x00\x00'
p618
tp619
Rp620
I14
tp621
a(g4
(g8
S'N\x00\x00\x00'
p622
tp623
Rp624
g4
(g8
S'\x04\x00\x00\x00'
p625
tp626
Rp627
I14
tp628
a(g624
g627
I14
tp629
a(g4
(g8
S'\x08\x00\x00\x00'
p630
tp631
Rp632
g4
(g8
S'\x13\x00\x00\x00'
p633
tp634
Rp635
I14
tp636
aa(lp637
(g4
(g8
S'5\x00\x00\x00'
p638
tp639
Rp640
g4
(g8
S'R\x00\x00\x00'
p641
tp642
Rp643
I15
tp644
a(g4
(g8
S'4\x00\x00\x00'
p645
tp646
Rp647
g4
(g8
S'F\x00\x00\x00'
p648
tp649
Rp650
I15
tp651
a(g4
(g8
S'B\x00\x00\x00'
p652
tp653
Rp654
g4
(g8
S'c\x00\x00\x00'
p655
tp656
Rp657
I15
tp658
a(g4
(g8
S'a\x00\x00\x00'
p659
tp660
Rp661
g4
(g8
S"'\x00\x00\x00"
p662
tp663
Rp664
I15
tp665
a(g4
(g8
S'>\x00\x00\x00'
p666
tp667
Rp668
g4
(g8
S'S\x00\x00\x00'
p669
tp670
Rp671
I15
tp672
a(g4
(g8
S'\x03\x00\x00\x00'
p673
tp674
Rp675
g4
(g8
S'?\x00\x00\x00'
p676
tp677
Rp678
I15
tp679
aa(lp680
(g4
(g8
S'P\x00\x00\x00'
p681
tp682
Rp683
g4
(g8
S'D\x00\x00\x00'
p684
tp685
Rp686
I16
tp687
a(g4
(g8
S'\x1b\x00\x00\x00'
p688
tp689
Rp690
g4
(g8
S'Z\x00\x00\x00'
p691
tp692
Rp693
I16
tp694
a(g4
(g8
S'C\x00\x00\x00'
p695
tp696
Rp697
g4
(g8
S',\x00\x00\x00'
p698
tp699
Rp700
I16
tp701
a(g4
(g8
S'\x07\x00\x00\x00'
p702
tp703
Rp704
g4
(g8
S'\x1e\x00\x00\x00'
p705
tp706
Rp707
I16
tp708
a(g4
(g8
S'8\x00\x00\x00'
p709
tp710
Rp711
g4
(g8
S'\x0b\x00\x00\x00'
p712
tp713
Rp714
I16
tp715
a(g4
(g8
S';\x00\x00\x00'
p716
tp717
Rp718
g4
(g8
S'^\x00\x00\x00'
p719
tp720
Rp721
I16
tp722
aa(lp723
(g4
(g8
S'8\x00\x00\x00'
p724
tp725
Rp726
g4
(g8
S'\x13\x00\x00\x00'
p727
tp728
Rp729
I17
tp730
a(g4
(g8
S'"\x00\x00\x00'
p731
tp732
Rp733
g4
(g8
S'`\x00\x00\x00'
p734
tp735
Rp736
I17
tp737
a(g4
(g8
S'C\x00\x00\x00'
p738
tp739
Rp740
g4
(g8
S'2\x00\x00\x00'
p741
tp742
Rp743
I17
tp744
a(g4
(g8
S'\t\x00\x00\x00'
p745
tp746
Rp747
g4
(g8
S'8\x00\x00\x00'
p748
tp749
Rp750
I17
tp751
a(g4
(g8
S'\x10\x00\x00\x00'
p752
tp753
Rp754
g4
(g8
S'7\x00\x00\x00'
p755
tp756
Rp757
I17
tp758
a(g4
(g8
S'\x03\x00\x00\x00'
p759
tp760
Rp761
g4
(g8
S'F\x00\x00\x00'
p762
tp763
Rp764
I17
tp765
aa(lp766
(g4
(g8
S'\x0f\x00\x00\x00'
p767
tp768
Rp769
g4
(g8
S'#\x00\x00\x00'
p770
tp771
Rp772
I18
tp773
a(g4
(g8
S'\x15\x00\x00\x00'
p774
tp775
Rp776
g4
(g8
S'6\x00\x00\x00'
p777
tp778
Rp779
I18
tp780
a(g4
(g8
S'<\x00\x00\x00'
p781
tp782
Rp783
g4
(g8
S'\x10\x00\x00\x00'
p784
tp785
Rp786
I18
tp787
a(g4
(g8
S'%\x00\x00\x00'
p788
tp789
Rp790
g4
(g8
S')\x00\x00\x00'
p791
tp792
Rp793
I18
tp794
a(g4
(g8
S'<\x00\x00\x00'
p795
tp796
Rp797
g4
(g8
S'0\x00\x00\x00'
p798
tp799
Rp800
I18
tp801
a(g4
(g8
S'\x02\x00\x00\x00'
p802
tp803
Rp804
g4
(g8
S'Y\x00\x00\x00'
p805
tp806
Rp807
I18
tp808
aa(lp809
(g4
(g8
S'\x0c\x00\x00\x00'
p810
tp811
Rp812
g4
(g8
S'\x19\x00\x00\x00'
p813
tp814
Rp815
I19
tp816
a(g4
(g8
S'\r\x00\x00\x00'
p817
tp818
Rp819
g4
(g8
S'1\x00\x00\x00'
p820
tp821
Rp822
I19
tp823
a(g4
(g8
S'\r\x00\x00\x00'
p824
tp825
Rp826
g4
(g8
S'+\x00\x00\x00'
p827
tp828
Rp829
I19
tp830
a(g4
(g8
S'\x0c\x00\x00\x00'
p831
tp832
Rp833
g4
(g8
S'\x1f\x00\x00\x00'
p834
tp835
Rp836
I19
tp837
a(g4
(g8
S'(\x00\x00\x00'
p838
tp839
Rp840
g4
(g8
S'\x0c\x00\x00\x00'
p841
tp842
Rp843
I19
tp844
a(g4
(g8
S'\x0c\x00\x00\x00'
p845
tp846
Rp847
g4
(g8
S'\x16\x00\x00\x00'
p848
tp849
Rp850
I19
tp851
aa(lp852
(g4
(g8
S'\x07\x00\x00\x00'
p853
tp854
Rp855
g4
(g8
S'\x04\x00\x00\x00'
p856
tp857
Rp858
I20
tp859
a(g4
(g8
S'\x00\x00\x00\x00'
p860
tp861
Rp862
g4
(g8
S'\x04\x00\x00\x00'
p863
tp864
Rp865
I20
tp866
a(g4
(g8
S'\x0f\x00\x00\x00'
p867
tp868
Rp869
g4
(g8
S'\n\x00\x00\x00'
p870
tp871
Rp872
I20
tp873
a(g4
(g8
S'\x0c\x00\x00\x00'
p874
tp875
Rp876
g4
(g8
S'\x07\x00\x00\x00'
p877
tp878
Rp879
I20
tp880
a(g4
(g8
S'\x10\x00\x00\x00'
p881
tp882
Rp883
g4
(g8
S'\x01\x00\x00\x00'
p884
tp885
Rp886
I20
tp887
a(g4
(g8
S'\x04\x00\x00\x00'
p888
tp889
Rp890
g4
(g8
S'\x00\x00\x00\x00'
p891
tp892
Rp893
I20
tp894
aa(lp895
(g4
(g8
S'J\x00\x00\x00'
p896
tp897
Rp898
g4
(g8
S'V\x00\x00\x00'
p899
tp900
Rp901
I21
tp902
a(g4
(g8
S'L\x00\x00\x00'
p903
tp904
Rp905
g4
(g8
S'<\x00\x00\x00'
p906
tp907
Rp908
I21
tp909
a(g4
(g8
S'c\x00\x00\x00'
p910
tp911
Rp912
g4
(g8
S'a\x00\x00\x00'
p913
tp914
Rp915
I21
tp916
a(g4
(g8
S'U\x00\x00\x00'
p917
tp918
Rp919
g4
(g8
S'`\x00\x00\x00'
p920
tp921
Rp922
I21
tp923
a(g4
(g8
S'=\x00\x00\x00'
p924
tp925
Rp926
g4
(g8
S'8\x00\x00\x00'
p927
tp928
Rp929
I21
tp930
a(g4
(g8
S'I\x00\x00\x00'
p931
tp932
Rp933
g4
(g8
S'G\x00\x00\x00'
p934
tp935
Rp936
I21
tp937
aa(lp938
(g4
(g8
S'G\x00\x00\x00'
p939
tp940
Rp941
g4
(g8
S'[\x00\x00\x00'
p942
tp943
Rp944
I22
tp945
a(g4
(g8
S'W\x00\x00\x00'
p946
tp947
Rp948
g4
(g8
S'F\x00\x00\x00'
p949
tp950
Rp951
I22
tp952
a(g4
(g8
S'>\x00\x00\x00'
p953
tp954
Rp955
g4
(g8
S'R\x00\x00\x00'
p956
tp957
Rp958
I22
tp959
a(g4
(g8
S'[\x00\x00\x00'
p960
tp961
Rp962
g4
(g8
S'E\x00\x00\x00'
p963
tp964
Rp965
I22
tp966
a(g4
(g8
S'K\x00\x00\x00'
p967
tp968
Rp969
g4
(g8
S'W\x00\x00\x00'
p970
tp971
Rp972
I22
tp973
a(g969
g972
I22
tp974
aa(lp975
(g4
(g8
S'(\x00\x00\x00'
p976
tp977
Rp978
g4
(g8
S'(\x00\x00\x00'
p979
tp980
Rp981
I23
tp982
a(g4
(g8
S'b\x00\x00\x00'
p983
tp984
Rp985
g4
(g8
S'b\x00\x00\x00'
p986
tp987
Rp988
I23
tp989
a(g4
(g8
S'\r\x00\x00\x00'
p990
tp991
Rp992
g4
(g8
S'\r\x00\x00\x00'
p993
tp994
Rp995
I23
tp996
a(g4
(g8
S'=\x00\x00\x00'
p997
tp998
Rp999
g4
(g8
S'=\x00\x00\x00'
p1000
tp1001
Rp1002
I23
tp1003
a(g4
(g8
S'I\x00\x00\x00'
p1004
tp1005
Rp1006
g4
(g8
S'I\x00\x00\x00'
p1007
tp1008
Rp1009
I23
tp1010
a(g4
(g8
S'a\x00\x00\x00'
p1011
tp1012
Rp1013
g4
(g8
S'a\x00\x00\x00'
p1014
tp1015
Rp1016
I23
tp1017
aa(lp1018
(g4
(g8
S'\x0e\x00\x00\x00'
p1019
tp1020
Rp1021
g4
(g8
S'0\x00\x00\x00'
p1022
tp1023
Rp1024
I24
tp1025
a(g1021
g1024
I24
tp1026
a(g1021
g1024
I24
tp1027
a(g1021
g1024
I24
tp1028
a(g1021
g1024
I24
tp1029
a(g1021
g1024
I24
tp1030
aa(lp1031
(g4
(g8
S'\x01\x00\x00\x00'
p1032
tp1033
Rp1034
g4
(g8
S"'\x00\x00\x00"
p1035
tp1036
Rp1037
I25
tp1038
a(g4
(g8
S'\x01\x00\x00\x00'
p1039
tp1040
Rp1041
g4
(g8
S'"\x00\x00\x00'
p1042
tp1043
Rp1044
I25
tp1045
a(g4
(g8
S'\x01\x00\x00\x00'
p1046
tp1047
Rp1048
g4
(g8
S'\x1d\x00\x00\x00'
p1049
tp1050
Rp1051
I25
tp1052
a(g1048
g1051
I25
tp1053
a(g1041
g1044
I25
tp1054
a(g4
(g8
S'\x00\x00\x00\x00'
p1055
tp1056
Rp1057
g4
(g8
S'2\x00\x00\x00'
p1058
tp1059
Rp1060
I25
tp1061
aa(lp1062
(I34
I97
I0
tp1063
a(I72
I89
I0
tp1064
a(I19
I4
I0
tp1065
a(I57
I26
I0
tp1066
aa(lp1067
(I1
I94
I1
tp1068
a(I20
I34
I1
tp1069
a(I3
I54
I1
tp1070
a(I21
I71
I1
tp1071
aa(lp1072
(I0
I98
I2
tp1073
a(I90
I85
I2
tp1074
a(I7
I66
I2
tp1075
a(I72
I12
I2
tp1076
aa(lp1077
(I26
I80
I3
tp1078
a(I46
I24
I3
tp1079
a(I73
I61
I3
tp1080
a(I85
I30
I3
tp1081
aa(lp1082
(I20
I96
I4
tp1083
a(I80
I57
I4
tp1084
a(I9
I23
I4
tp1085
a(I29
I80
I4
tp1086
aa(lp1087
(I78
I1
I5
tp1088
a(I54
I2
I5
tp1089
a(I30
I33
I5
tp1090
a(I36
I8
I5
tp1091
aa(lp1092
(I79
I101
I6
tp1093
a(I101
I17
I6
tp1094
a(I76
I34
I6
tp1095
a(I84
I79
I6
tp1096
aa(lp1097
(I100
I83
I7
tp1098
a(I60
I99
I7
tp1099
a(I32
I31
I7
tp1100
a(I25
I71
I7
tp1101
aa(lp1102
(I37
I21
I8
tp1103
a(I24
I18
I8
tp1104
a(I92
I71
I8
tp1105
a(I38
I54
I8
tp1106
aa(lp1107
(I61
I68
I9
tp1108
a(I84
I34
I9
tp1109
a(I83
I91
I9
tp1110
a(I71
I57
I9
tp1111
aa(lp1112
(I36
I27
I10
tp1113
a(I42
I91
I10
tp1114
a(I30
I41
I10
tp1115
a(I80
I37
I10
tp1116
aa(lp1117
(I39
I52
I11
tp1118
a(I42
I43
I11
tp1119
a(I29
I79
I11
tp1120
a(I88
I7
I11
tp1121
aa(lp1122
(I86
I55
I12
tp1123
a(I101
I26
I12
tp1124
a(I11
I57
I12
tp1125
a(I6
I9
I12
tp1126
aa(lp1127
(I53
I54
I13
tp1128
a(I98
I99
I13
tp1129
a(I82
I68
I13
tp1130
a(I57
I50
I13
tp1131
aa(lp1132
(I6
I86
I14
tp1133
a(I51
I50
I14
tp1134
a(I58
I75
I14
tp1135
a(I47
I97
I14
tp1136
aa(lp1137
(I67
I12
I15
tp1138
a(I48
I10
I15
tp1139
a(I29
I37
I15
tp1140
a(I94
I78
I15
tp1141
aa(lp1142
(I32
I25
I16
tp1143
a(I6
I34
I16
tp1144
a(I81
I15
I16
tp1145
a(I62
I43
I16
tp1146
aa(lp1147
(I47
I7
I17
tp1148
a(I101
I78
I17
tp1149
a(I19
I83
I17
tp1150
a(I86
I15
I17
tp1151
aa(lp1152
(I99
I63
I18
tp1153
a(I50
I78
I18
tp1154
a(I15
I50
I18
tp1155
a(I46
I31
I18
tp1156
aa(lp1157
(I82
I57
I19
tp1158
a(I26
I11
I19
tp1159
a(I36
I23
I19
tp1160
a(I37
I90
I19
tp1161
aa(lp1162
(I89
I91
I20
tp1163
a(I23
I71
I20
tp1164
a(I64
I52
I20
tp1165
a(I14
I71
I20
tp1166
aa(lp1167
(I38
I85
I21
tp1168
a(I43
I64
I21
tp1169
a(I55
I69
I21
tp1170
a(I20
I23
I21
tp1171
aa(lp1172
(I36
I46
I22
tp1173
a(I30
I101
I22
tp1174
a(I45
I62
I22
tp1175
a(I29
I15
I22
tp1176
aa(lp1177
(I27
I78
I23
tp1178
a(I16
I27
I23
tp1179
a(I48
I73
I23
tp1180
a(I80
I28
I23
tp1181
aa(lp1182
(I89
I14
I24
tp1183
a(I37
I80
I24
tp1184
a(I28
I90
I24
tp1185
a(I96
I62
I24
tp1186
aa(lp1187
(I44
I72
I25
tp1188
a(I8
I0
I25
tp1189
a(I83
I98
I25
tp1190
a(I32
I93
I25
tp1191
aas.