(dp0
S'instances'
p1
(lp2
(lp3
(cnumpy.core.multiarray
scalar
p4
(cnumpy
dtype
p5
(S'i4'
p6
I0
I1
tp7
Rp8
(I3
S'<'
p9
NNNI-1
I-1
I0
tp10
bS'Z\x00\x00\x00'
p11
tp12
Rp13
g4
(g8
S'2\x00\x00\x00'
p14
tp15
Rp16
I0
tp17
a(g4
(g8
S"'\x00\x00\x00"
p18
tp19
Rp20
g4
(g8
S'8\x00\x00\x00'
p21
tp22
Rp23
I0
tp24
a(g4
(g8
S'-\x00\x00\x00'
p25
tp26
Rp27
g4
(g8
S'\x13\x00\x00\x00'
p28
tp29
Rp30
I0
tp31
a(g4
(g8
S'\x0c\x00\x00\x00'
p32
tp33
Rp34
g4
(g8
S'"\x00\x00\x00'
p35
tp36
Rp37
I0
tp38
a(g4
(g8
S'\x0c\x00\x00\x00'
p39
tp40
Rp41
g4
(g8
S'Z\x00\x00\x00'
p42
tp43
Rp44
I0
tp45
a(g4
(g8
S'Z\x00\x00\x00'
p46
tp47
Rp48
g4
(g8
S'U\x00\x00\x00'
p49
tp50
Rp51
I0
tp52
aa(lp53
(g4
(g8
S'H\x00\x00\x00'
p54
tp55
Rp56
g4
(g8
S'3\x00\x00\x00'
p57
tp58
Rp59
I1
tp60
a(g4
(g8
S'e\x00\x00\x00'
p61
tp62
Rp63
g4
(g8
S'\x14\x00\x00\x00'
p64
tp65
Rp66
I1
tp67
a(g4
(g8
S'?\x00\x00\x00'
p68
tp69
Rp70
g4
(g8
S'\x0c\x00\x00\x00'
p71
tp72
Rp73
I1
tp74
a(g4
(g8
S'\x1c\x00\x00\x00'
p75
tp76
Rp77
g4
(g8
S'\x07\x00\x00\x00'
p78
tp79
Rp80
I1
tp81
a(g4
(g8
S'V\x00\x00\x00'
p82
tp83
Rp84
g4
(g8
S'\x10\x00\x00\x00'
p85
tp86
Rp87
I1
tp88
a(g4
(g8
S'\x06\x00\x00\x00'
p89
tp90
Rp91
g4
(g8
S'\\\x00\x00\x00'
p92
tp93
Rp94
I1
tp95
aa(lp96
(g4
(g8
S'\x0f\x00\x00\x00'
p97
tp98
Rp99
g4
(g8
S'V\x00\x00\x00'
p100
tp101
Rp102
I2
tp103
a(g4
(g8
S'\x07\x00\x00\x00'
p104
tp105
Rp106
g4
(g8
S'1\x00\x00\x00'
p107
tp108
Rp109
I2
tp110
a(g4
(g8
S'@\x00\x00\x00'
p111
tp112
Rp113
g4
(g8
S'[\x00\x00\x00'
p114
tp115
Rp116
I2
tp117
a(g4
(g8
S'O\x00\x00\x00'
p118
tp119
Rp120
g4
(g8
S'[\x00\x00\x00'
p121
tp122
Rp123
I2
tp124
a(g4
(g8
S'\n\x00\x00\x00'
p125
tp126
Rp127
g4
(g8
S'f\x00\x00\x00'
p128
tp129
Rp130
I2
tp131
a(g4
(g8
S'W\x00\x00\x00'
p132
tp133
Rp134
g4
(g8
S'`\x00\x00\x00'
p135
tp136
Rp137
I2
tp138
aa(lp139
(g4
(g8
S'T\x00\x00\x00'
p140
tp141
Rp142
g4
(g8
S'0\x00\x00\x00'
p143
tp144
Rp145
I3
tp146
a(g4
(g8
S'6\x00\x00\x00'
p147
tp148
Rp149
g4
(g8
S'\x03\x00\x00\x00'
p150
tp151
Rp152
I3
tp153
a(g4
(g8
S'8\x00\x00\x00'
p154
tp155
Rp156
g4
(g8
S'N\x00\x00\x00'
p157
tp158
Rp159
I3
tp160
a(g4
(g8
S':\x00\x00\x00'
p161
tp162
Rp163
g4
(g8
S'I\x00\x00\x00'
p164
tp165
Rp166
I3
tp167
a(g4
(g8
S'N\x00\x00\x00'
p168
tp169
Rp170
g4
(g8
S'8\x00\x00\x00'
p171
tp172
Rp173
I3
tp174
a(g4
(g8
S'=\x00\x00\x00'
p175
tp176
Rp177
g4
(g8
S'S\x00\x00\x00'
p178
tp179
Rp180
I3
tp181
aa(lp182
(g4
(g8
S'e\x00\x00\x00'
p183
tp184
Rp185
g4
(g8
S'9\x00\x00\x00'
p186
tp187
Rp188
I4
tp189
a(g4
(g8
S'\x00\x00\x00\x00'
p190
tp191
Rp192
g4
(g8
S'Z\x00\x00\x00'
p193
tp194
Rp195
I4
tp196
a(g4
(g8
S'/\x00\x00\x00'
p197
tp198
Rp199
g4
(g8
S' \x00\x00\x00'
p200
tp201
Rp202
I4
tp203
a(g4
(g8
S'Z\x00\x00\x00'
p204
tp205
Rp206
g4
(g8
S'\x01\x00\x00\x00'
p207
tp208
Rp209
I4
tp210
a(g4
(g8
S'.\x00\x00\x00'
p211
tp212
Rp213
g4
(g8
S'\n\x00\x00\x00'
p214
tp215
Rp216
I4
tp217
a(g4
(g8
S'L\x00\x00\x00'
p218
tp219
Rp220
g4
(g8
S'Y\x00\x00\x00'
p221
tp222
Rp223
I4
tp224
aa(lp225
(g4
(g8
S'\x1d\x00\x00\x00'
p226
tp227
Rp228
g4
(g8
S'\x03\x00\x00\x00'
p229
tp230
Rp231
I5
tp232
a(g4
(g8
S'\x18\x00\x00\x00'
p233
tp234
Rp235
g4
(g8
S'\x04\x00\x00\x00'
p236
tp237
Rp238
I5
tp239
a(g4
(g8
S'd\x00\x00\x00'
p240
tp241
Rp242
g4
(g8
S'\x1d\x00\x00\x00'
p243
tp244
Rp245
I5
tp246
a(g4
(g8
S'I\x00\x00\x00'
p247
tp248
Rp249
g4
(g8
S'\x03\x00\x00\x00'
p250
tp251
Rp252
I5
tp253
a(g4
(g8
S'$\x00\x00\x00'
p254
tp255
Rp256
g4
(g8
S'\x0c\x00\x00\x00'
p257
tp258
Rp259
I5
tp260
a(g4
(g8
S'-\x00\x00\x00'
p261
tp262
Rp263
g4
(g8
S'*\x00\x00\x00'
p264
tp265
Rp266
I5
tp267
aa(lp268
(g4
(g8
S',\x00\x00\x00'
p269
tp270
Rp271
g4
(g8
S'R\x00\x00\x00'
p272
tp273
Rp274
I6
tp275
a(g4
(g8
S'%\x00\x00\x00'
p276
tp277
Rp278
g4
(g8
S'@\x00\x00\x00'
p279
tp280
Rp281
I6
tp282
a(g4
(g8
S'/\x00\x00\x00'
p283
tp284
Rp285
g4
(g8
S'`\x00\x00\x00'
p286
tp287
Rp288
I6
tp289
a(g4
(g8
S'\x03\x00\x00\x00'
p290
tp291
Rp292
g4
(g8
S'8\x00\x00\x00'
p293
tp294
Rp295
I6
tp296
a(g4
(g8
S'K\x00\x00\x00'
p297
tp298
Rp299
g4
(g8
S'C\x00\x00\x00'
p300
tp301
Rp302
I6
tp303
a(g4
(g8
S'H\x00\x00\x00'
p304
tp305
Rp306
g4
(g8
S'D\x00\x00\x00'
p307
tp308
Rp309
I6
tp310
aa(lp311
(g4
(g8
S'S\x00\x00\x00'
p312
tp313
Rp314
g4
(g8
S'@\x00\x00\x00'
p315
tp316
Rp317
I7
tp318
a(g4
(g8
S'\x08\x00\x00\x00'
p319
tp320
Rp321
g4
(g8
S'c\x00\x00\x00'
p322
tp323
Rp324
I7
tp325
a(g4
(g8
S'_\x00\x00\x00'
p326
tp327
Rp328
g4
(g8
S';\x00\x00\x00'
p329
tp330
Rp331
I7
tp332
a(g4
(g8
S'<\x00\x00\x00'
p333
tp334
Rp335
g4
(g8
S'F\x00\x00\x00'
p336
tp337
Rp338
I7
tp339
a(g4
(g8
S'S\x00\x00\x00'
p340
tp341
Rp342
g4
(g8
S'\\\x00\x00\x00'
p343
tp344
Rp345
I7
tp346
a(g4
(g8
S'B\x00\x00\x00'
p347
tp348
Rp349
g4
(g8
S'R\x00\x00\x00'
p350
tp351
Rp352
I7
tp353
aa(lp354
(g4
(g8
S'/\x00\x00\x00'
p355
tp356
Rp357
g4
(g8
S'2\x00\x00\x00'
p358
tp359
Rp360
I8
tp361
a(g4
(g8
S'9\x00\x00\x00'
p362
tp363
Rp364
g4
(g8
S'\x10\x00\x00\x00'
p365
tp366
Rp367
I8
tp368
a(g4
(g8
S'\\\x00\x00\x00'
p369
tp370
Rp371
g4
(g8
S'.\x00\x00\x00'
p372
tp373
Rp374
I8
tp375
a(g4
(g8
S'3\x00\x00\x00'
p376
tp377
Rp378
g4
(g8
S',\x00\x00\x00'
p379
tp380
Rp381
I8
tp382
a(g4
(g8
S'e\x00\x00\x00'
p383
tp384
Rp385
g4
(g8
S'&\x00\x00\x00'
p386
tp387
Rp388
I8
tp389
a(g4
(g8
S"'\x00\x00\x00"
p390
tp391
Rp392
g4
(g8
S'\x16\x00\x00\x00'
p393
tp394
Rp395
I8
tp396
aa(lp397
(g4
(g8
S'a\x00\x00\x00'
p398
tp399
Rp400
g4
(g8
S'\x12\x00\x00\x00'
p401
tp402
Rp403
I9
tp404
a(g4
(g8
S'\x15\x00\x00\x00'
p405
tp406
Rp407
g4
(g8
S'\x01\x00\x00\x00'
p408
tp409
Rp410
I9
tp411
a(g4
(g8
S'\x11\x00\x00\x00'
p412
tp413
Rp414
g4
(g8
S'\x04\x00\x00\x00'
p415
tp416
Rp417
I9
tp418
a(g4
(g8
S'\x17\x00\x00\x00'
p419
tp420
Rp421
g4
(g8
S'\x0e\x00\x00\x00'
p422
tp423
Rp424
I9
tp425
a(g4
(g8
S'P\x00\x00\x00'
p426
tp427
Rp428
g4
(g8
S'2\x00\x00\x00'
p429
tp430
Rp431
I9
tp432
a(g4
(g8
S'L\x00\x00\x00'
p433
tp434
Rp435
g4
(g8
S'\x0b\x00\x00\x00'
p436
tp437
Rp438
I9
tp439
aa(lp440
(g4
(g8
S'\x0e\x00\x00\x00'
p441
tp442
Rp443
g4
(g8
S'5\x00\x00\x00'
p444
tp445
Rp446
I10
tp447
a(g4
(g8
S'\x12\x00\x00\x00'
p448
tp449
Rp450
g4
(g8
S'g\x00\x00\x00'
p451
tp452
Rp453
I10
tp454
a(g4
(g8
S'Q\x00\x00\x00'
p455
tp456
Rp457
g4
(g8
S'C\x00\x00\x00'
p458
tp459
Rp460
I10
tp461
a(g4
(g8
S'-\x00\x00\x00'
p462
tp463
Rp464
g4
(g8
S'H\x00\x00\x00'
p465
tp466
Rp467
I10
tp468
a(g4
(g8
S'!\x00\x00\x00'
p469
tp470
Rp471
g4
(g8
S'L\x00\x00\x00'
p472
tp473
Rp474
I10
tp475
a(g4
(g8
S'&\x00\x00\x00'
p476
tp477
Rp478
g4
(g8
S'_\x00\x00\x00'
p479
tp480
Rp481
I10
tp482
aa(lp483
(g4
(g8
S'\x0b\x00\x00\x00'
p484
tp485
Rp486
g4
(g8
S'6\x00\x00\x00'
p487
tp488
Rp489
I11
tp490
a(g4
(g8
S';\x00\x00\x00'
p491
tp492
Rp493
g4
(g8
S'V\x00\x00\x00'
p494
tp495
Rp496
I11
tp497
a(g4
(g8
S'\t\x00\x00\x00'
p498
tp499
Rp500
g4
(g8
S'C\x00\x00\x00'
p501
tp502
Rp503
I11
tp504
a(g4
(g8
S'F\x00\x00\x00'
p505
tp506
Rp507
g4
(g8
S'K\x00\x00\x00'
p508
tp509
Rp510
I11
tp511
a(g4
(g8
S'S\x00\x00\x00'
p512
tp513
Rp514
g4
(g8
S'Z\x00\x00\x00'
p515
tp516
Rp517
I11
tp518
a(g4
(g8
S'Z\x00\x00\x00'
p519
tp520
Rp521
g4
(g8
S'b\x00\x00\x00'
p522
tp523
Rp524
I11
tp525
aa(lp526
(g4
(g8
S'P\x00\x00\x00'
p527
tp528
Rp529
g4
(g8
S'-\x00\x00\x00'
p530
tp531
Rp532
I12
tp533
a(g4
(g8
S'W\x00\x00\x00'
p534
tp535
Rp536
g4
(g8
S'\x04\x00\x00\x00'
p537
tp538
Rp539
I12
tp540
a(g4
(g8
S'K\x00\x00\x00'
p541
tp542
Rp543
g4
(g8
S'\x1a\x00\x00\x00'
p544
tp545
Rp546
I12
tp547
a(g4
(g8
S'\x1f\x00\x00\x00'
p548
tp549
Rp550
g4
(g8
S'\x18\x00\x00\x00'
p551
tp552
Rp553
I12
tp554
a(g4
(g8
S'\x18\x00\x00\x00'
p555
tp556
Rp557
g4
(g8
S'*\x00\x00\x00'
p558
tp559
Rp560
I12
tp561
a(g4
(g8
S':\x00\x00\x00'
p562
tp563
Rp564
g4
(g8
S'\x0f\x00\x00\x00'
p565
tp566
Rp567
I12
tp568
aa(lp569
(g4
(g8
S'g\x00\x00\x00'
p570
tp571
Rp572
g4
(g8
S'A\x00\x00\x00'
p573
tp574
Rp575
I13
tp576
a(g4
(g8
S"'\x00\x00\x00"
p577
tp578
Rp579
g4
(g8
S'J\x00\x00\x00'
p580
tp581
Rp582
I13
tp583
a(g4
(g8
S'$\x00\x00\x00'
p584
tp585
Rp586
g4
(g8
S'A\x00\x00\x00'
p587
tp588
Rp589
I13
tp590
a(g4
(g8
S'J\x00\x00\x00'
p591
tp592
Rp593
g4
(g8
S'R\x00\x00\x00'
p594
tp595
Rp596
I13
tp597
a(g4
(g8
S'\\\x00\x00\x00'
p598
tp599
Rp600
g4
(g8
S'Y\x00\x00\x00'
p601
tp602
Rp603
I13
tp604
a(g4
(g8
S'\r\x00\x00\x00'
p605
tp606
Rp607
g4
(g8
S'L\x00\x00\x00'
p608
tp609
Rp610
I13
tp611
aa(lp612
(g4
(g8
S' \x00\x00\x00'
p613
tp614
Rp615
g4
(g8
S'\x19\x00\x00\x00'
p616
tp617
Rp618
I14
tp619
a(g4
(g8
S'$\x00\x00\x00'
p620
tp621
Rp622
g4
(g8
S'\x19\x00\x00\x00'
p623
tp624
Rp625
I14
tp626
a(g4
(g8
S'$\x00\x00\x00'
p627
tp628
Rp629
g4
(g8
S'\x1b\x00\x00\x00'
p630
tp631
Rp632
I14
tp633
a(g4
(g8
S'N\x00\x00\x00'
p634
tp635
Rp636
g4
(g8
S'\x04\x00\x00\x00'
p637
tp638
Rp639
I14
tp640
a(g636
g639
I14
tp641
a(g629
g632
I14
tp642
aa(lp643
(g4
(g8
S'3\x00\x00\x00'
p644
tp645
Rp646
g4
(g8
S'K\x00\x00\x00'
p647
tp648
Rp649
I15
tp650
a(g4
(g8
S'O\x00\x00\x00'
p651
tp652
Rp653
g4
(g8
S'`\x00\x00\x00'
p654
tp655
Rp656
I15
tp657
a(g4
(g8
S'\x1a\x00\x00\x00'
p658
tp659
Rp660
g4
(g8
S'S\x00\x00\x00'
p661
tp662
Rp663
I15
tp664
a(g4
(g8
S'T\x00\x00\x00'
p665
tp666
Rp667
g4
(g8
S')\x00\x00\x00'
p668
tp669
Rp670
I15
tp671
a(g4
(g8
S'\x04\x00\x00\x00'
p672
tp673
Rp674
g4
(g8
S'g\x00\x00\x00'
p675
tp676
Rp677
I15
tp678
a(g4
(g8
S'\x17\x00\x00\x00'
p679
tp680
Rp681
g4
(g8
S'P\x00\x00\x00'
p682
tp683
Rp684
I15
tp685
aa(lp686
(g4
(g8
S'9\x00\x00\x00'
p687
tp688
Rp689
g4
(g8
S'\x12\x00\x00\x00'
p690
tp691
Rp692
I16
tp693
a(g4
(g8
S'U\x00\x00\x00'
p694
tp695
Rp696
g4
(g8
S'*\x00\x00\x00'
p697
tp698
Rp699
I16
tp700
a(g4
(g8
S'g\x00\x00\x00'
p701
tp702
Rp703
g4
(g8
S'G\x00\x00\x00'
p704
tp705
Rp706
I16
tp707
a(g4
(g8
S'8\x00\x00\x00'
p708
tp709
Rp710
g4
(g8
S'6\x00\x00\x00'
p711
tp712
Rp713
I16
tp714
a(g4
(g8
S'\x13\x00\x00\x00'
p715
tp716
Rp717
g4
(g8
S'\x1e\x00\x00\x00'
p718
tp719
Rp720
I16
tp721
a(g4
(g8
S'>\x00\x00\x00'
p722
tp723
Rp724
g4
(g8
S'W\x00\x00\x00'
p725
tp726
Rp727
I16
tp728
aa(lp729
(g4
(g8
S'U\x00\x00\x00'
p730
tp731
Rp732
g4
(g8
S'\n\x00\x00\x00'
p733
tp734
Rp735
I17
tp736
a(g4
(g8
S'8\x00\x00\x00'
p737
tp738
Rp739
g4
(g8
S'\x13\x00\x00\x00'
p740
tp741
Rp742
I17
tp743
a(g4
(g8
S'\x11\x00\x00\x00'
p744
tp745
Rp746
g4
(g8
S'G\x00\x00\x00'
p747
tp748
Rp749
I17
tp750
a(g4
(g8
S'\x08\x00\x00\x00'
p751
tp752
Rp753
g4
(g8
S'W\x00\x00\x00'
p754
tp755
Rp756
I17
tp757
a(g4
(g8
S'?\x00\x00\x00'
p758
tp759
Rp760
g4
(g8
S'\x00\x00\x00\x00'
p761
tp762
Rp763
I17
tp764
a(g4
(g8
S' \x00\x00\x00'
p765
tp766
Rp767
g4
(g8
S'L\x00\x00\x00'
p768
tp769
Rp770
I17
tp771
aa(lp772
(g4
(g8
S'[\x00\x00\x00'
p773
tp774
Rp775
g4
(g8
S'1\x00\x00\x00'
p776
tp777
Rp778
I18
tp779
a(g4
(g8
S'E\x00\x00\x00'
p780
tp781
Rp782
g4
(g8
S'\x1b\x00\x00\x00'
p783
tp784
Rp785
I18
tp786
a(g4
(g8
S'*\x00\x00\x00'
p787
tp788
Rp789
g4
(g8
S'E\x00\x00\x00'
p790
tp791
Rp792
I18
tp793
a(g4
(g8
S'&\x00\x00\x00'
p794
tp795
Rp796
g4
(g8
S'1\x00\x00\x00'
p797
tp798
Rp799
I18
tp800
a(g4
(g8
S'\n\x00\x00\x00'
p801
tp802
Rp803
g4
(g8
S'\x0b\x00\x00\x00'
p804
tp805
Rp806
I18
tp807
a(g4
(g8
S'\x19\x00\x00\x00'
p808
tp809
Rp810
g4
(g8
S'J\x00\x00\x00'
p811
tp812
Rp813
I18
tp814
aa(lp815
(g4
(g8
S'\r\x00\x00\x00'
p816
tp817
Rp818
g4
(g8
S'%\x00\x00\x00'
p819
tp820
Rp821
I19
tp822
a(g4
(g8
S'\x0c\x00\x00\x00'
p823
tp824
Rp825
g4
(g8
S'\x16\x00\x00\x00'
p826
tp827
Rp828
I19
tp829
a(g4
(g8
S'\r\x00\x00\x00'
p830
tp831
Rp832
g4
(g8
S'\x1c\x00\x00\x00'
p833
tp834
Rp835
I19
tp836
a(g4
(g8
S'\x0c\x00\x00\x00'
p837
tp838
Rp839
g4
(g8
S'\x1f\x00\x00\x00'
p840
tp841
Rp842
I19
tp843
a(g4
(g8
S'\x0c\x00\x00\x00'
p844
tp845
Rp846
g4
(g8
S'!\x00\x00\x00'
p847
tp848
Rp849
I19
tp850
a(g4
(g8
S'\r\x00\x00\x00'
p851
tp852
Rp853
g4
(g8
S'+\x00\x00\x00'
p854
tp855
Rp856
I19
tp857
aa(lp858
(g4
(g8
S'\x05\x00\x00\x00'
p859
tp860
Rp861
g4
(g8
S'\x04\x00\x00\x00'
p862
tp863
Rp864
I20
tp865
a(g4
(g8
S'\x0b\x00\x00\x00'
p866
tp867
Rp868
g4
(g8
S' \x00\x00\x00'
p869
tp870
Rp871
I20
tp872
a(g4
(g8
S'1\x00\x00\x00'
p873
tp874
Rp875
g4
(g8
S'\x1d\x00\x00\x00'
p876
tp877
Rp878
I20
tp879
a(g4
(g8
S'%\x00\x00\x00'
p880
tp881
Rp882
g4
(g8
S'"\x00\x00\x00'
p883
tp884
Rp885
I20
tp886
a(g4
(g8
S'"\x00\x00\x00'
p887
tp888
Rp889
g4
(g8
S'+\x00\x00\x00'
p890
tp891
Rp892
I20
tp893
a(g4
(g8
S'#\x00\x00\x00'
p894
tp895
Rp896
g4
(g8
S'(\x00\x00\x00'
p897
tp898
Rp899
I20
tp900
aa(lp901
(g4
(g8
S'8\x00\x00\x00'
p902
tp903
Rp904
g4
(g8
S'4\x00\x00\x00'
p905
tp906
Rp907
I21
tp908
a(g4
(g8
S':\x00\x00\x00'
p909
tp910
Rp911
g4
(g8
S'8\x00\x00\x00'
p912
tp913
Rp914
I21
tp915
a(g4
(g8
S'Z\x00\x00\x00'
p916
tp917
Rp918
g4
(g8
S'`\x00\x00\x00'
p919
tp920
Rp921
I21
tp922
a(g4
(g8
S'O\x00\x00\x00'
p923
tp924
Rp925
g4
(g8
S'<\x00\x00\x00'
p926
tp927
Rp928
I21
tp929
a(g4
(g8
S'Z\x00\x00\x00'
p930
tp931
Rp932
g4
(g8
S'f\x00\x00\x00'
p933
tp934
Rp935
I21
tp936
a(g4
(g8
S'I\x00\x00\x00'
p937
tp938
Rp939
g4
(g8
S'4\x00\x00\x00'
p940
tp941
Rp942
I21
tp943
aa(lp944
(g4
(g8
S'E\x00\x00\x00'
p945
tp946
Rp947
g4
(g8
S'^\x00\x00\x00'
p948
tp949
Rp950
I22
tp951
a(g4
(g8
S'B\x00\x00\x00'
p952
tp953
Rp954
g4
(g8
S'\\\x00\x00\x00'
p955
tp956
Rp957
I22
tp958
a(g4
(g8
S'f\x00\x00\x00'
p959
tp960
Rp961
g4
(g8
S'c\x00\x00\x00'
p962
tp963
Rp964
I22
tp965
a(g4
(g8
S'c\x00\x00\x00'
p966
tp967
Rp968
g4
(g8
S'N\x00\x00\x00'
p969
tp970
Rp971
I22
tp972
a(g4
(g8
S'_\x00\x00\x00'
p973
tp974
Rp975
g4
(g8
S'f\x00\x00\x00'
p976
tp977
Rp978
I22
tp979
a(g4
(g8
S'@\x00\x00\x00'
p980
tp981
Rp982
g4
(g8
S'J\x00\x00\x00'
p983
tp984
Rp985
I22
tp986
aa(lp987
(g4
(g8
S';\x00\x00\x00'
p988
tp989
Rp990
g4
(g8
S';\x00\x00\x00'
p991
tp992
Rp993
I23
tp994
a(g4
(g8
S'\x0f\x00\x00\x00'
p995
tp996
Rp997
g4
(g8
S'\x0f\x00\x00\x00'
p998
tp999
Rp1000
I23
tp1001
a(g4
(g8
S'5\x00\x00\x00'
p1002
tp1003
Rp1004
g4
(g8
S'5\x00\x00\x00'
p1005
tp1006
Rp1007
I23
tp1008
a(g4
(g8
S'\x02\x00\x00\x00'
p1009
tp1010
Rp1011
g4
(g8
S'\x02\x00\x00\x00'
p1012
tp1013
Rp1014
I23
tp1015
a(g4
(g8
S'\x04\x00\x00\x00'
p1016
tp1017
Rp1018
g4
(g8
S'\x04\x00\x00\x00'
p1019
tp1020
Rp1021
I23
tp1022
a(g1018
g1021
I23
tp1023
aa(lp1024
(g4
(g8
S'\x0e\x00\x00\x00'
p1025
tp1026
Rp1027
g4
(g8
S'0\x00\x00\x00'
p1028
tp1029
Rp1030
I24
tp1031
a(g1027
g1030
I24
tp1032
a(g1027
g1030
I24
tp1033
a(g1027
g1030
I24
tp1034
a(g1027
g1030
I24
tp1035
a(g1027
g1030
I24
tp1036
aa(lp1037
(g4
(g8
S'\x03\x00\x00\x00'
p1038
tp1039
Rp1040
g4
(g8
S'\x06\x00\x00\x00'
p1041
tp1042
Rp1043
I25
tp1044
a(g4
(g8
S'\x00\x00\x00\x00'
p1045
tp1046
Rp1047
g4
(g8
S'2\x00\x00\x00'
p1048
tp1049
Rp1050
I25
tp1051
a(g4
(g8
S'\x01\x00\x00\x00'
p1052
tp1053
Rp1054
g4
(g8
S'"\x00\x00\x00'
p1055
tp1056
Rp1057
I25
tp1058
a(g4
(g8
S'\x01\x00\x00\x00'
p1059
tp1060
Rp1061
g4
(g8
S"'\x00\x00\x00"
p1062
tp1063
Rp1064
I25
tp1065
a(g1047
g1050
I25
tp1066
a(g1047
g1050
I25
tp1067
aa(lp1068
(I12
I66
I0
tp1069
a(I24
I91
I0
tp1070
a(I24
I49
I0
tp1071
a(I59
I28
I0
tp1072
aa(lp1073
(I34
I81
I1
tp1074
a(I36
I91
I1
tp1075
a(I72
I42
I1
tp1076
a(I90
I50
I1
tp1077
aa(lp1078
(I19
I50
I2
tp1079
a(I75
I78
I2
tp1080
a(I47
I90
I2
tp1081
a(I102
I72
I2
tp1082
aa(lp1083
(I51
I66
I3
tp1084
a(I85
I14
I3
tp1085
a(I3
I14
I3
tp1086
a(I35
I50
I3
tp1087
aa(lp1088
(I72
I74
I4
tp1089
a(I70
I16
I4
tp1090
a(I63
I23
I4
tp1091
a(I5
I25
I4
tp1092
aa(lp1093
(I7
I71
I5
tp1094
a(I97
I99
I5
tp1095
a(I90
I96
I5
tp1096
a(I53
I96
I5
tp1097
aa(lp1098
(I13
I97
I6
tp1099
a(I11
I0
I6
tp1100
a(I0
I84
I6
tp1101
a(I13
I100
I6
tp1102
aa(lp1103
(I89
I75
I7
tp1104
a(I32
I10
I7
tp1105
a(I78
I7
I7
tp1106
a(I46
I9
I7
tp1107
aa(lp1108
(I60
I38
I8
tp1109
a(I10
I54
I8
tp1110
a(I47
I76
I8
tp1111
a(I16
I48
I8
tp1112
aa(lp1113
(I35
I94
I9
tp1114
a(I64
I39
I9
tp1115
a(I20
I13
I9
tp1116
a(I25
I24
I9
tp1117
aa(lp1118
(I51
I99
I10
tp1119
a(I102
I26
I10
tp1120
a(I97
I50
I10
tp1121
a(I2
I98
I10
tp1122
aa(lp1123
(I23
I29
I11
tp1124
a(I60
I7
I11
tp1125
a(I51
I34
I11
tp1126
a(I68
I54
I11
tp1127
aa(lp1128
(I67
I99
I12
tp1129
a(I42
I45
I12
tp1130
a(I60
I88
I12
tp1131
a(I54
I84
I12
tp1132
aa(lp1133
(I74
I39
I13
tp1134
a(I9
I76
I13
tp1135
a(I80
I8
I13
tp1136
a(I58
I47
I13
tp1137
aa(lp1138
(I20
I19
I14
tp1139
a(I66
I62
I14
tp1140
a(I60
I102
I14
tp1141
a(I26
I49
I14
tp1142
aa(lp1143
(I21
I56
I15
tp1144
a(I62
I90
I15
tp1145
a(I99
I30
I15
tp1146
a(I98
I72
I15
tp1147
aa(lp1148
(I51
I98
I16
tp1149
a(I50
I98
I16
tp1150
a(I42
I12
I16
tp1151
a(I33
I43
I16
tp1152
aa(lp1153
(I5
I51
I17
tp1154
a(I1
I20
I17
tp1155
a(I94
I41
I17
tp1156
a(I44
I97
I17
tp1157
aa(lp1158
(I20
I14
I18
tp1159
a(I84
I73
I18
tp1160
a(I78
I64
I18
tp1161
a(I21
I56
I18
tp1162
aa(lp1163
(I39
I43
I19
tp1164
a(I40
I54
I19
tp1165
a(I27
I30
I19
tp1166
a(I88
I26
I19
tp1167
aa(lp1168
(I6
I90
I20
tp1169
a(I2
I69
I20
tp1170
a(I23
I13
I20
tp1171
a(I67
I85
I20
tp1172
aa(lp1173
(I43
I69
I21
tp1174
a(I47
I34
I21
tp1175
a(I52
I76
I21
tp1176
a(I22
I76
I21
tp1177
aa(lp1178
(I64
I88
I22
tp1179
a(I79
I20
I22
tp1180
a(I86
I73
I22
tp1181
a(I85
I22
I22
tp1182
aa(lp1183
(I73
I59
I23
tp1184
a(I102
I53
I23
tp1185
a(I28
I98
I23
tp1186
a(I81
I51
I23
tp1187
aa(lp1188
(I85
I93
I24
tp1189
a(I18
I9
I24
tp1190
a(I65
I12
I24
tp1191
a(I32
I52
I24
tp1192
aa(lp1193
(I3
I87
I25
tp1194
a(I3
I32
I25
tp1195
a(I102
I96
I25
tp1196
a(I55
I79
I25
tp1197
aas.