(dp0
S'instances'
p1
(lp2
(lp3
(cnumpy.core.multiarray
scalar
p4
(cnumpy
dtype
p5
(S'i4'
p6
I0
I1
tp7
Rp8
(I3
S'<'
p9
NNNI-1
I-1
I0
tp10
bS'\x0f\x00\x00\x00'
p11
tp12
Rp13
g4
(g8
S'Z\x00\x00\x00'
p14
tp15
Rp16
I0
tp17
a(g4
(g8
S'/\x00\x00\x00'
p18
tp19
Rp20
g4
(g8
S'\x19\x00\x00\x00'
p21
tp22
Rp23
I0
tp24
a(g4
(g8
S'P\x00\x00\x00'
p25
tp26
Rp27
g4
(g8
S"'\x00\x00\x00"
p28
tp29
Rp30
I0
tp31
a(g4
(g8
S'\x11\x00\x00\x00'
p32
tp33
Rp34
g4
(g8
S"'\x00\x00\x00"
p35
tp36
Rp37
I0
tp38
a(g4
(g8
S'\x08\x00\x00\x00'
p39
tp40
Rp41
g4
(g8
S'e\x00\x00\x00'
p42
tp43
Rp44
I0
tp45
a(g4
(g8
S'\t\x00\x00\x00'
p46
tp47
Rp48
g4
(g8
S'-\x00\x00\x00'
p49
tp50
Rp51
I0
tp52
aa(lp53
(g4
(g8
S'E\x00\x00\x00'
p54
tp55
Rp56
g4
(g8
S'\t\x00\x00\x00'
p57
tp58
Rp59
I1
tp60
a(g4
(g8
S'%\x00\x00\x00'
p61
tp62
Rp63
g4
(g8
S'3\x00\x00\x00'
p64
tp65
Rp66
I1
tp67
a(g4
(g8
S'.\x00\x00\x00'
p68
tp69
Rp70
g4
(g8
S'\x08\x00\x00\x00'
p71
tp72
Rp73
I1
tp74
a(g4
(g8
S'H\x00\x00\x00'
p75
tp76
Rp77
g4
(g8
S':\x00\x00\x00'
p78
tp79
Rp80
I1
tp81
a(g4
(g8
S'R\x00\x00\x00'
p82
tp83
Rp84
g4
(g8
S'\x0f\x00\x00\x00'
p85
tp86
Rp87
I1
tp88
a(g4
(g8
S'H\x00\x00\x00'
p89
tp90
Rp91
g4
(g8
S'9\x00\x00\x00'
p92
tp93
Rp94
I1
tp95
aa(lp96
(g4
(g8
S'\x0f\x00\x00\x00'
p97
tp98
Rp99
g4
(g8
S'R\x00\x00\x00'
p100
tp101
Rp102
I2
tp103
a(g4
(g8
S'V\x00\x00\x00'
p104
tp105
Rp106
g4
(g8
S'Z\x00\x00\x00'
p107
tp108
Rp109
I2
tp110
a(g4
(g8
S':\x00\x00\x00'
p111
tp112
Rp113
g4
(g8
S'Q\x00\x00\x00'
p114
tp115
Rp116
I2
tp117
a(g4
(g8
S'3\x00\x00\x00'
p118
tp119
Rp120
g4
(g8
S'f\x00\x00\x00'
p121
tp122
Rp123
I2
tp124
a(g4
(g8
S'\x08\x00\x00\x00'
p125
tp126
Rp127
g4
(g8
S'V\x00\x00\x00'
p128
tp129
Rp130
I2
tp131
a(g4
(g8
S'\x07\x00\x00\x00'
p132
tp133
Rp134
g4
(g8
S'H\x00\x00\x00'
p135
tp136
Rp137
I2
tp138
aa(lp139
(g4
(g8
S'\x07\x00\x00\x00'
p140
tp141
Rp142
g4
(g8
S'P\x00\x00\x00'
p143
tp144
Rp145
I3
tp146
a(g4
(g8
S'R\x00\x00\x00'
p147
tp148
Rp149
g4
(g8
S'9\x00\x00\x00'
p150
tp151
Rp152
I3
tp153
a(g4
(g8
S'A\x00\x00\x00'
p154
tp155
Rp156
g4
(g8
S'X\x00\x00\x00'
p157
tp158
Rp159
I3
tp160
a(g4
(g8
S'9\x00\x00\x00'
p161
tp162
Rp163
g4
(g8
S'\x1d\x00\x00\x00'
p164
tp165
Rp166
I3
tp167
a(g4
(g8
S'4\x00\x00\x00'
p168
tp169
Rp170
g4
(g8
S'\x0c\x00\x00\x00'
p171
tp172
Rp173
I3
tp174
a(g4
(g8
S'B\x00\x00\x00'
p175
tp176
Rp177
g4
(g8
S'P\x00\x00\x00'
p178
tp179
Rp180
I3
tp181
aa(lp182
(g4
(g8
S')\x00\x00\x00'
p183
tp184
Rp185
g4
(g8
S'\x03\x00\x00\x00'
p186
tp187
Rp188
I4
tp189
a(g4
(g8
S'\\\x00\x00\x00'
p190
tp191
Rp192
g4
(g8
S'\x03\x00\x00\x00'
p193
tp194
Rp195
I4
tp196
a(g4
(g8
S'\x0e\x00\x00\x00'
p197
tp198
Rp199
g4
(g8
S'c\x00\x00\x00'
p200
tp201
Rp202
I4
tp203
a(g4
(g8
S']\x00\x00\x00'
p204
tp205
Rp206
g4
(g8
S'\x16\x00\x00\x00'
p207
tp208
Rp209
I4
tp210
a(g4
(g8
S'K\x00\x00\x00'
p211
tp212
Rp213
g4
(g8
S'\r\x00\x00\x00'
p214
tp215
Rp216
I4
tp217
a(g4
(g8
S'\x0b\x00\x00\x00'
p218
tp219
Rp220
g4
(g8
S',\x00\x00\x00'
p221
tp222
Rp223
I4
tp224
aa(lp225
(g4
(g8
S'Z\x00\x00\x00'
p226
tp227
Rp228
g4
(g8
S'\x12\x00\x00\x00'
p229
tp230
Rp231
I5
tp232
a(g4
(g8
S'"\x00\x00\x00'
p233
tp234
Rp235
g4
(g8
S'\x12\x00\x00\x00'
p236
tp237
Rp238
I5
tp239
a(g4
(g8
S'\x16\x00\x00\x00'
p240
tp241
Rp242
g4
(g8
S'\x01\x00\x00\x00'
p243
tp244
Rp245
I5
tp246
a(g4
(g8
S'K\x00\x00\x00'
p247
tp248
Rp249
g4
(g8
S'\x01\x00\x00\x00'
p250
tp251
Rp252
I5
tp253
a(g4
(g8
S'G\x00\x00\x00'
p254
tp255
Rp256
g4
(g8
S'\x19\x00\x00\x00'
p257
tp258
Rp259
I5
tp260
a(g4
(g8
S'd\x00\x00\x00'
p261
tp262
Rp263
g4
(g8
S'\x0c\x00\x00\x00'
p264
tp265
Rp266
I5
tp267
aa(lp268
(g4
(g8
S'&\x00\x00\x00'
p269
tp270
Rp271
g4
(g8
S'7\x00\x00\x00'
p272
tp273
Rp274
I6
tp275
a(g4
(g8
S'Y\x00\x00\x00'
p276
tp277
Rp278
g4
(g8
S';\x00\x00\x00'
p279
tp280
Rp281
I6
tp282
a(g4
(g8
S'N\x00\x00\x00'
p283
tp284
Rp285
g4
(g8
S'D\x00\x00\x00'
p286
tp287
Rp288
I6
tp289
a(g4
(g8
S'$\x00\x00\x00'
p290
tp291
Rp292
g4
(g8
S'U\x00\x00\x00'
p293
tp294
Rp295
I6
tp296
a(g4
(g8
S'R\x00\x00\x00'
p297
tp298
Rp299
g4
(g8
S'5\x00\x00\x00'
p300
tp301
Rp302
I6
tp303
a(g4
(g8
S'-\x00\x00\x00'
p304
tp305
Rp306
g4
(g8
S'A\x00\x00\x00'
p307
tp308
Rp309
I6
tp310
aa(lp311
(g4
(g8
S'\x04\x00\x00\x00'
p312
tp313
Rp314
g4
(g8
S'A\x00\x00\x00'
p315
tp316
Rp317
I7
tp318
a(g4
(g8
S'*\x00\x00\x00'
p319
tp320
Rp321
g4
(g8
S'P\x00\x00\x00'
p322
tp323
Rp324
I7
tp325
a(g4
(g8
S'e\x00\x00\x00'
p326
tp327
Rp328
g4
(g8
S'_\x00\x00\x00'
p329
tp330
Rp331
I7
tp332
a(g4
(g8
S')\x00\x00\x00'
p333
tp334
Rp335
g4
(g8
S'U\x00\x00\x00'
p336
tp337
Rp338
I7
tp339
a(g4
(g8
S'!\x00\x00\x00'
p340
tp341
Rp342
g4
(g8
S'P\x00\x00\x00'
p343
tp344
Rp345
I7
tp346
a(g4
(g8
S'1\x00\x00\x00'
p347
tp348
Rp349
g4
(g8
S'g\x00\x00\x00'
p350
tp351
Rp352
I7
tp353
aa(lp354
(g4
(g8
S'@\x00\x00\x00'
p355
tp356
Rp357
g4
(g8
S',\x00\x00\x00'
p358
tp359
Rp360
I8
tp361
a(g4
(g8
S'M\x00\x00\x00'
p362
tp363
Rp364
g4
(g8
S'/\x00\x00\x00'
p365
tp366
Rp367
I8
tp368
a(g4
(g8
S')\x00\x00\x00'
p369
tp370
Rp371
g4
(g8
S'\x11\x00\x00\x00'
p372
tp373
Rp374
I8
tp375
a(g4
(g8
S'>\x00\x00\x00'
p376
tp377
Rp378
g4
(g8
S')\x00\x00\x00'
p379
tp380
Rp381
I8
tp382
a(g4
(g8
S'\x16\x00\x00\x00'
p383
tp384
Rp385
g4
(g8
S'\x0f\x00\x00\x00'
p386
tp387
Rp388
I8
tp389
a(g4
(g8
S'>\x00\x00\x00'
p390
tp391
Rp392
g4
(g8
S'\x19\x00\x00\x00'
p393
tp394
Rp395
I8
tp396
aa(lp397
(g4
(g8
S'\x19\x00\x00\x00'
p398
tp399
Rp400
g4
(g8
S'\x16\x00\x00\x00'
p401
tp402
Rp403
I9
tp404
a(g4
(g8
S'D\x00\x00\x00'
p405
tp406
Rp407
g4
(g8
S'\x16\x00\x00\x00'
p408
tp409
Rp410
I9
tp411
a(g4
(g8
S'\x1f\x00\x00\x00'
p412
tp413
Rp414
g4
(g8
S'\x19\x00\x00\x00'
p415
tp416
Rp417
I9
tp418
a(g4
(g8
S'\x1e\x00\x00\x00'
p419
tp420
Rp421
g4
(g8
S'\x18\x00\x00\x00'
p422
tp423
Rp424
I9
tp425
a(g4
(g8
S',\x00\x00\x00'
p426
tp427
Rp428
g4
(g8
S'\x1a\x00\x00\x00'
p429
tp430
Rp431
I9
tp432
a(g4
(g8
S'\x17\x00\x00\x00'
p433
tp434
Rp435
g4
(g8
S'\x03\x00\x00\x00'
p436
tp437
Rp438
I9
tp439
aa(lp440
(g4
(g8
S'(\x00\x00\x00'
p441
tp442
Rp443
g4
(g8
S'F\x00\x00\x00'
p444
tp445
Rp446
I10
tp447
a(g4
(g8
S'\x19\x00\x00\x00'
p448
tp449
Rp450
g4
(g8
S'D\x00\x00\x00'
p451
tp452
Rp453
I10
tp454
a(g4
(g8
S'\t\x00\x00\x00'
p455
tp456
Rp457
g4
(g8
S'=\x00\x00\x00'
p458
tp459
Rp460
I10
tp461
a(g4
(g8
S'(\x00\x00\x00'
p462
tp463
Rp464
g4
(g8
S'K\x00\x00\x00'
p465
tp466
Rp467
I10
tp468
a(g4
(g8
S'2\x00\x00\x00'
p469
tp470
Rp471
g4
(g8
S'S\x00\x00\x00'
p472
tp473
Rp474
I10
tp475
a(g4
(g8
S'_\x00\x00\x00'
p476
tp477
Rp478
g4
(g8
S'c\x00\x00\x00'
p479
tp480
Rp481
I10
tp482
aa(lp483
(g4
(g8
S'\t\x00\x00\x00'
p484
tp485
Rp486
g4
(g8
S'J\x00\x00\x00'
p487
tp488
Rp489
I11
tp490
a(g4
(g8
S'\x1d\x00\x00\x00'
p491
tp492
Rp493
g4
(g8
S'Z\x00\x00\x00'
p494
tp495
Rp496
I11
tp497
a(g4
(g8
S';\x00\x00\x00'
p498
tp499
Rp500
g4
(g8
S'.\x00\x00\x00'
p501
tp502
Rp503
I11
tp504
a(g4
(g8
S'd\x00\x00\x00'
p505
tp506
Rp507
g4
(g8
S'a\x00\x00\x00'
p508
tp509
Rp510
I11
tp511
a(g4
(g8
S'\x13\x00\x00\x00'
p512
tp513
Rp514
g4
(g8
S'\x00\x00\x00\x00'
p515
tp516
Rp517
I11
tp518
a(g4
(g8
S'\x12\x00\x00\x00'
p519
tp520
Rp521
g4
(g8
S'\x1e\x00\x00\x00'
p522
tp523
Rp524
I11
tp525
aa(lp526
(g4
(g8
S'g\x00\x00\x00'
p527
tp528
Rp529
g4
(g8
S'!\x00\x00\x00'
p530
tp531
Rp532
I12
tp533
a(g4
(g8
S'Q\x00\x00\x00'
p534
tp535
Rp536
g4
(g8
S"'\x00\x00\x00"
p537
tp538
Rp539
I12
tp540
a(g4
(g8
S'\x19\x00\x00\x00'
p541
tp542
Rp543
g4
(g8
S'\x1a\x00\x00\x00'
p544
tp545
Rp546
I12
tp547
a(g4
(g8
S'\x1e\x00\x00\x00'
p548
tp549
Rp550
g4
(g8
S'\x19\x00\x00\x00'
p551
tp552
Rp553
I12
tp554
a(g4
(g8
S'K\x00\x00\x00'
p555
tp556
Rp557
g4
(g8
S'#\x00\x00\x00'
p558
tp559
Rp560
I12
tp561
a(g4
(g8
S'!\x00\x00\x00'
p562
tp563
Rp564
g4
(g8
S'\x12\x00\x00\x00'
p565
tp566
Rp567
I12
tp568
aa(lp569
(g4
(g8
S'\x19\x00\x00\x00'
p570
tp571
Rp572
g4
(g8
S'5\x00\x00\x00'
p573
tp574
Rp575
I13
tp576
a(g4
(g8
S'5\x00\x00\x00'
p577
tp578
Rp579
g4
(g8
S'_\x00\x00\x00'
p580
tp581
Rp582
I13
tp583
a(g4
(g8
S'+\x00\x00\x00'
p584
tp585
Rp586
g4
(g8
S'M\x00\x00\x00'
p587
tp588
Rp589
I13
tp590
a(g4
(g8
S'U\x00\x00\x00'
p591
tp592
Rp593
g4
(g8
S'4\x00\x00\x00'
p594
tp595
Rp596
I13
tp597
a(g4
(g8
S'\x1b\x00\x00\x00'
p598
tp599
Rp600
g4
(g8
S'<\x00\x00\x00'
p601
tp602
Rp603
I13
tp604
a(g4
(g8
S'W\x00\x00\x00'
p605
tp606
Rp607
g4
(g8
S'V\x00\x00\x00'
p608
tp609
Rp610
I13
tp611
aa(lp612
(g4
(g8
S'\x08\x00\x00\x00'
p613
tp614
Rp615
g4
(g8
S'\x05\x00\x00\x00'
p616
tp617
Rp618
I14
tp619
a(g4
(g8
S'$\x00\x00\x00'
p620
tp621
Rp622
g4
(g8
S'!\x00\x00\x00'
p623
tp624
Rp625
I14
tp626
a(g4
(g8
S'N\x00\x00\x00'
p627
tp628
Rp629
g4
(g8
S'\x11\x00\x00\x00'
p630
tp631
Rp632
I14
tp633
a(g4
(g8
S'N\x00\x00\x00'
p634
tp635
Rp636
g4
(g8
S'"\x00\x00\x00'
p637
tp638
Rp639
I14
tp640
a(g4
(g8
S'<\x00\x00\x00'
p641
tp642
Rp643
g4
(g8
S'*\x00\x00\x00'
p644
tp645
Rp646
I14
tp647
a(g4
(g8
S'N\x00\x00\x00'
p648
tp649
Rp650
g4
(g8
S"'\x00\x00\x00"
p651
tp652
Rp653
I14
tp654
aa(lp655
(g4
(g8
S'R\x00\x00\x00'
p656
tp657
Rp658
g4
(g8
S'a\x00\x00\x00'
p659
tp660
Rp661
I15
tp662
a(g4
(g8
S'<\x00\x00\x00'
p663
tp664
Rp665
g4
(g8
S"'\x00\x00\x00"
p666
tp667
Rp668
I15
tp669
a(g4
(g8
S'>\x00\x00\x00'
p670
tp671
Rp672
g4
(g8
S'.\x00\x00\x00'
p673
tp674
Rp675
I15
tp676
a(g4
(g8
S'\x1e\x00\x00\x00'
p677
tp678
Rp679
g4
(g8
S'R\x00\x00\x00'
p680
tp681
Rp682
I15
tp683
a(g4
(g8
S'8\x00\x00\x00'
p684
tp685
Rp686
g4
(g8
S'$\x00\x00\x00'
p687
tp688
Rp689
I15
tp690
a(g4
(g8
S'8\x00\x00\x00'
p691
tp692
Rp693
g4
(g8
S'\x12\x00\x00\x00'
p694
tp695
Rp696
I15
tp697
aa(lp698
(g4
(g8
S';\x00\x00\x00'
p699
tp700
Rp701
g4
(g8
S'!\x00\x00\x00'
p702
tp703
Rp704
I16
tp705
a(g4
(g8
S'4\x00\x00\x00'
p706
tp707
Rp708
g4
(g8
S']\x00\x00\x00'
p709
tp710
Rp711
I16
tp712
a(g4
(g8
S'\x00\x00\x00\x00'
p713
tp714
Rp715
g4
(g8
S'\x1a\x00\x00\x00'
p716
tp717
Rp718
I16
tp719
a(g4
(g8
S'\x07\x00\x00\x00'
p720
tp721
Rp722
g4
(g8
S'<\x00\x00\x00'
p723
tp724
Rp725
I16
tp726
a(g4
(g8
S'\x0e\x00\x00\x00'
p727
tp728
Rp729
g4
(g8
S'+\x00\x00\x00'
p730
tp731
Rp732
I16
tp733
a(g4
(g8
S'5\x00\x00\x00'
p734
tp735
Rp736
g4
(g8
S'\x01\x00\x00\x00'
p737
tp738
Rp739
I16
tp740
aa(lp741
(g4
(g8
S'\x12\x00\x00\x00'
p742
tp743
Rp744
g4
(g8
S'\\\x00\x00\x00'
p745
tp746
Rp747
I17
tp748
a(g4
(g8
S'\n\x00\x00\x00'
p749
tp750
Rp751
g4
(g8
S';\x00\x00\x00'
p752
tp753
Rp754
I17
tp755
a(g4
(g8
S'L\x00\x00\x00'
p756
tp757
Rp758
g4
(g8
S'\x12\x00\x00\x00'
p759
tp760
Rp761
I17
tp762
a(g4
(g8
S'\n\x00\x00\x00'
p763
tp764
Rp765
g4
(g8
S'M\x00\x00\x00'
p766
tp767
Rp768
I17
tp769
a(g4
(g8
S'\x1b\x00\x00\x00'
p770
tp771
Rp772
g4
(g8
S'a\x00\x00\x00'
p773
tp774
Rp775
I17
tp776
a(g4
(g8
S'V\x00\x00\x00'
p777
tp778
Rp779
g4
(g8
S'\x01\x00\x00\x00'
p780
tp781
Rp782
I17
tp783
aa(lp784
(g4
(g8
S'%\x00\x00\x00'
p785
tp786
Rp787
g4
(g8
S'&\x00\x00\x00'
p788
tp789
Rp790
I18
tp791
a(g4
(g8
S'+\x00\x00\x00'
p792
tp793
Rp794
g4
(g8
S'K\x00\x00\x00'
p795
tp796
Rp797
I18
tp798
a(g4
(g8
S'_\x00\x00\x00'
p799
tp800
Rp801
g4
(g8
S'%\x00\x00\x00'
p802
tp803
Rp804
I18
tp805
a(g4
(g8
S'\x1f\x00\x00\x00'
p806
tp807
Rp808
g4
(g8
S'+\x00\x00\x00'
p809
tp810
Rp811
I18
tp812
a(g4
(g8
S'\x06\x00\x00\x00'
p813
tp814
Rp815
g4
(g8
S'\t\x00\x00\x00'
p816
tp817
Rp818
I18
tp819
a(g4
(g8
S'\x03\x00\x00\x00'
p820
tp821
Rp822
g4
(g8
S'\x0f\x00\x00\x00'
p823
tp824
Rp825
I18
tp826
aa(lp827
(g4
(g8
S'\x0c\x00\x00\x00'
p828
tp829
Rp830
g4
(g8
S'\x0b\x00\x00\x00'
p831
tp832
Rp833
I19
tp834
a(g4
(g8
S'\x0c\x00\x00\x00'
p835
tp836
Rp837
g4
(g8
S'\x1f\x00\x00\x00'
p838
tp839
Rp840
I19
tp841
a(g4
(g8
S'\r\x00\x00\x00'
p842
tp843
Rp844
g4
(g8
S'+\x00\x00\x00'
p845
tp846
Rp847
I19
tp848
a(g4
(g8
S'\r\x00\x00\x00'
p849
tp850
Rp851
g4
(g8
S'\x1c\x00\x00\x00'
p852
tp853
Rp854
I19
tp855
a(g4
(g8
S'\r\x00\x00\x00'
p856
tp857
Rp858
g4
(g8
S'%\x00\x00\x00'
p859
tp860
Rp861
I19
tp862
a(g4
(g8
S'\r\x00\x00\x00'
p863
tp864
Rp865
g4
(g8
S'1\x00\x00\x00'
p866
tp867
Rp868
I19
tp869
aa(lp870
(g4
(g8
S'\x1c\x00\x00\x00'
p871
tp872
Rp873
g4
(g8
S'.\x00\x00\x00'
p874
tp875
Rp876
I20
tp877
a(g4
(g8
S'$\x00\x00\x00'
p878
tp879
Rp880
g4
(g8
S'\x06\x00\x00\x00'
p881
tp882
Rp883
I20
tp884
a(g4
(g8
S'\x0c\x00\x00\x00'
p885
tp886
Rp887
g4
(g8
S'\x15\x00\x00\x00'
p888
tp889
Rp890
I20
tp891
a(g4
(g8
S'\x1e\x00\x00\x00'
p892
tp893
Rp894
g4
(g8
S'*\x00\x00\x00'
p895
tp896
Rp897
I20
tp898
a(g4
(g8
S'\x19\x00\x00\x00'
p899
tp900
Rp901
g4
(g8
S'\x12\x00\x00\x00'
p902
tp903
Rp904
I20
tp905
a(g4
(g8
S"'\x00\x00\x00"
p906
tp907
Rp908
g4
(g8
S'\t\x00\x00\x00'
p909
tp910
Rp911
I20
tp912
aa(lp913
(g4
(g8
S'J\x00\x00\x00'
p914
tp915
Rp916
g4
(g8
S'?\x00\x00\x00'
p917
tp918
Rp919
I21
tp920
a(g4
(g8
S'a\x00\x00\x00'
p921
tp922
Rp923
g4
(g8
S'c\x00\x00\x00'
p924
tp925
Rp926
I21
tp927
a(g4
(g8
S'S\x00\x00\x00'
p928
tp929
Rp930
g4
(g8
S'J\x00\x00\x00'
p931
tp932
Rp933
I21
tp934
a(g4
(g8
S'A\x00\x00\x00'
p935
tp936
Rp937
g4
(g8
S'Y\x00\x00\x00'
p938
tp939
Rp940
I21
tp941
a(g4
(g8
S'3\x00\x00\x00'
p942
tp943
Rp944
g4
(g8
S'8\x00\x00\x00'
p945
tp946
Rp947
I21
tp948
a(g923
g926
I21
tp949
aa(lp950
(g4
(g8
S'N\x00\x00\x00'
p951
tp952
Rp953
g4
(g8
S'\\\x00\x00\x00'
p954
tp955
Rp956
I22
tp957
a(g4
(g8
S'T\x00\x00\x00'
p958
tp959
Rp960
g4
(g8
S'F\x00\x00\x00'
p961
tp962
Rp963
I22
tp964
a(g4
(g8
S'\\\x00\x00\x00'
p965
tp966
Rp967
g4
(g8
S'N\x00\x00\x00'
p968
tp969
Rp970
I22
tp971
a(g4
(g8
S'F\x00\x00\x00'
p972
tp973
Rp974
g4
(g8
S'T\x00\x00\x00'
p975
tp976
Rp977
I22
tp978
a(g4
(g8
S'K\x00\x00\x00'
p979
tp980
Rp981
g4
(g8
S'N\x00\x00\x00'
p982
tp983
Rp984
I22
tp985
a(g4
(g8
S'\\\x00\x00\x00'
p986
tp987
Rp988
g4
(g8
S'`\x00\x00\x00'
p989
tp990
Rp991
I22
tp992
aa(lp993
(g4
(g8
S'B\x00\x00\x00'
p994
tp995
Rp996
g4
(g8
S'B\x00\x00\x00'
p997
tp998
Rp999
I23
tp1000
a(g4
(g8
S'4\x00\x00\x00'
p1001
tp1002
Rp1003
g4
(g8
S'4\x00\x00\x00'
p1004
tp1005
Rp1006
I23
tp1007
a(g4
(g8
S'Z\x00\x00\x00'
p1008
tp1009
Rp1010
g4
(g8
S'Z\x00\x00\x00'
p1011
tp1012
Rp1013
I23
tp1014
a(g4
(g8
S'\x1b\x00\x00\x00'
p1015
tp1016
Rp1017
g4
(g8
S'\x1b\x00\x00\x00'
p1018
tp1019
Rp1020
I23
tp1021
a(g4
(g8
S'9\x00\x00\x00'
p1022
tp1023
Rp1024
g4
(g8
S'9\x00\x00\x00'
p1025
tp1026
Rp1027
I23
tp1028
a(g4
(g8
S'0\x00\x00\x00'
p1029
tp1030
Rp1031
g4
(g8
S'0\x00\x00\x00'
p1032
tp1033
Rp1034
I23
tp1035
aa(lp1036
(g4
(g8
S'\x0e\x00\x00\x00'
p1037
tp1038
Rp1039
g4
(g8
S'0\x00\x00\x00'
p1040
tp1041
Rp1042
I24
tp1043
a(g1039
g1042
I24
tp1044
a(g1039
g1042
I24
tp1045
a(g1039
g1042
I24
tp1046
a(g1039
g1042
I24
tp1047
a(g1039
g1042
I24
tp1048
aa(lp1049
(g4
(g8
S'\x03\x00\x00\x00'
p1050
tp1051
Rp1052
g4
(g8
S'\x06\x00\x00\x00'
p1053
tp1054
Rp1055
I25
tp1056
a(g4
(g8
S'\x01\x00\x00\x00'
p1057
tp1058
Rp1059
g4
(g8
S"'\x00\x00\x00"
p1060
tp1061
Rp1062
I25
tp1063
a(g1059
g1062
I25
tp1064
a(g4
(g8
S'\x01\x00\x00\x00'
p1065
tp1066
Rp1067
g4
(g8
S'"\x00\x00\x00'
p1068
tp1069
Rp1070
I25
tp1071
a(g1067
g1070
I25
tp1072
a(g4
(g8
S'\x00\x00\x00\x00'
p1073
tp1074
Rp1075
g4
(g8
S'2\x00\x00\x00'
p1076
tp1077
Rp1078
I25
tp1079
aa(lp1080
(I17
I91
I0
tp1081
a(I87
I23
I0
tp1082
a(I27
I100
I0
tp1083
a(I71
I82
I0
tp1084
aa(lp1085
(I12
I59
I1
tp1086
a(I80
I58
I1
tp1087
a(I33
I94
I1
tp1088
a(I7
I4
I1
tp1089
aa(lp1090
(I15
I66
I2
tp1091
a(I99
I6
I2
tp1092
a(I61
I1
I2
tp1093
a(I23
I57
I2
tp1094
aa(lp1095
(I44
I83
I3
tp1096
a(I61
I52
I3
tp1097
a(I6
I3
I3
tp1098
a(I75
I90
I3
tp1099
aa(lp1100
(I31
I65
I4
tp1101
a(I93
I48
I4
tp1102
a(I100
I90
I4
tp1103
a(I31
I79
I4
tp1104
aa(lp1105
(I36
I12
I5
tp1106
a(I19
I55
I5
tp1107
a(I64
I31
I5
tp1108
a(I17
I62
I5
tp1109
aa(lp1110
(I5
I19
I6
tp1111
a(I23
I31
I6
tp1112
a(I90
I15
I6
tp1113
a(I2
I52
I6
tp1114
aa(lp1115
(I4
I24
I7
tp1116
a(I24
I72
I7
tp1117
a(I16
I10
I7
tp1118
a(I30
I30
I7
tp1119
aa(lp1120
(I20
I86
I8
tp1121
a(I84
I43
I8
tp1122
a(I72
I4
I8
tp1123
a(I8
I58
I8
tp1124
aa(lp1125
(I36
I39
I9
tp1126
a(I47
I46
I9
tp1127
a(I61
I40
I9
tp1128
a(I57
I89
I9
tp1129
aa(lp1130
(I5
I18
I10
tp1131
a(I52
I69
I10
tp1132
a(I7
I84
I10
tp1133
a(I31
I86
I10
tp1134
aa(lp1135
(I77
I13
I11
tp1136
a(I39
I17
I11
tp1137
a(I36
I9
I11
tp1138
a(I42
I37
I11
tp1139
aa(lp1140
(I16
I7
I12
tp1141
a(I77
I102
I12
tp1142
a(I39
I36
I12
tp1143
a(I56
I85
I12
tp1144
aa(lp1145
(I97
I89
I13
tp1146
a(I68
I29
I13
tp1147
a(I15
I81
I13
tp1148
a(I89
I82
I13
tp1149
aa(lp1150
(I82
I86
I14
tp1151
a(I13
I81
I14
tp1152
a(I79
I19
I14
tp1153
a(I3
I55
I14
tp1154
aa(lp1155
(I7
I74
I15
tp1156
a(I89
I32
I15
tp1157
a(I67
I36
I15
tp1158
a(I40
I58
I15
tp1159
aa(lp1160
(I32
I74
I16
tp1161
a(I20
I102
I16
tp1162
a(I54
I51
I16
tp1163
a(I37
I52
I16
tp1164
aa(lp1165
(I42
I73
I17
tp1166
a(I80
I37
I17
tp1167
a(I19
I22
I17
tp1168
a(I76
I36
I17
tp1169
aa(lp1170
(I9
I40
I18
tp1171
a(I19
I75
I18
tp1172
a(I19
I82
I18
tp1173
a(I78
I102
I18
tp1174
aa(lp1175
(I31
I60
I19
tp1176
a(I0
I78
I19
tp1177
a(I63
I3
I19
tp1178
a(I45
I79
I19
tp1179
aa(lp1180
(I63
I56
I20
tp1181
a(I57
I76
I20
tp1182
a(I88
I77
I20
tp1183
a(I16
I79
I20
tp1184
aa(lp1185
(I81
I54
I21
tp1186
a(I38
I60
I21
tp1187
a(I16
I59
I21
tp1188
a(I56
I60
I21
tp1189
aa(lp1190
(I70
I68
I22
tp1191
a(I101
I78
I22
tp1192
a(I15
I1
I22
tp1193
a(I40
I80
I22
tp1194
aa(lp1195
(I70
I66
I23
tp1196
a(I28
I38
I23
tp1197
a(I60
I1
I23
tp1198
a(I97
I51
I23
tp1199
aa(lp1200
(I46
I13
I24
tp1201
a(I97
I49
I24
tp1202
a(I20
I29
I24
tp1203
a(I64
I6
I24
tp1204
aa(lp1205
(I18
I13
I25
tp1206
a(I93
I37
I25
tp1207
a(I77
I5
I25
tp1208
a(I97
I43
I25
tp1209
aas.